 WizardTime

 Timestamp is 6632467a (Wed May  1 14:41:14 2024)

 Preferred load address is 0000000140000000

 Start         Length     Name                   Class
 0001:00000000 00010000H .textbss                DATA
 0002:00000000 00003120H .text$di                CODE
 0002:00003120 000137a0H .text$mn                CODE
 0002:000168c0 00001040H .text$mn$00             CODE
 0002:00017900 000017f0H .text$x                 CODE
 0002:000190f0 0000101aH .text$yd                CODE
 0003:00000000 00000110H .CRT$XCA                DATA
 0003:00000110 00000110H .CRT$XCAA               DATA
 0003:00000220 00000110H .CRT$XCL                DATA
 0003:00000330 00000128H .CRT$XCU                DATA
 0003:00000458 00000110H .CRT$XCZ                DATA
 0003:00000568 00000110H .CRT$XIA                DATA
 0003:00000678 00000110H .CRT$XIAA               DATA
 0003:00000788 00000110H .CRT$XIAC               DATA
 0003:00000898 00000110H .CRT$XIZ                DATA
 0003:000009a8 00000110H .CRT$XPA                DATA
 0003:00000ab8 00000110H .CRT$XPZ                DATA
 0003:00000bc8 00000110H .CRT$XTA                DATA
 0003:00000cd8 00000118H .CRT$XTZ                DATA
 0003:00000df0 00003190H .rdata                  DATA
 0003:00003f80 00000200H .rdata$CastGuardVftablesA DATA
 0003:00004180 000001a0H .rdata$CastGuardVftablesC DATA
 0003:00004320 000007e8H .rdata$r                DATA
 0003:00004b08 000001b0H .rdata$zzzdbg           DATA
 0003:00004cb8 00000110H .rtc$IAA                DATA
 0003:00004dc8 000001b0H .rtc$IMZ                DATA
 0003:00004f78 00000110H .rtc$IZZ                DATA
 0003:00005088 00000110H .rtc$TAA                DATA
 0003:00005198 000001b0H .rtc$TMZ                DATA
 0003:00005348 00000110H .rtc$TZZ                DATA
 0003:00005458 00002718H .xdata                  DATA
 0003:00007b70 00000274H .xdata$x                DATA
 0003:00007de4 00000000H .edata                  DATA
 0004:00000000 00000180H .data                   DATA
 0004:00000180 000001d0H .data$r                 DATA
 0004:00000350 00000330H .data$rs                DATA
 0004:00000680 00000848H .bss                    DATA
 0005:00000000 000032dcH .pdata                  DATA
 0006:00000000 00000a18H .idata$5                DATA
 0006:00000a18 000000b4H .idata$2                DATA
 0006:00000acc 00000014H .idata$3                DATA
 0006:00000ae0 00000a18H .idata$4                DATA
 0006:000014f8 00001b49H .idata$6                DATA
 0007:00000000 000008b3H .msvcjmc                DATA
 0008:00000000 00000175H .00cfg                  DATA
 0009:00000000 00000170H .rsrc$01                DATA
 0009:00000170 000002ccH .rsrc$02                DATA

  Address         Publics by Value              Rva+Base               Lib:Object

 0000:00000000       __AbsoluteZero             0000000000000000     <absolute>
 0000:00000000       ___safe_se_handler_count   0000000000000000     <absolute>
 0000:00000000       ___safe_se_handler_table   0000000000000000     <absolute>
 0000:00000000       __arm64x_extra_rfe_table   0000000000000000     <absolute>
 0000:00000000       __arm64x_extra_rfe_table_size 0000000000000000     <absolute>
 0000:00000000       __arm64x_native_entrypoint 0000000000000000     <absolute>
 0000:00000000       __arm64x_redirection_metadata 0000000000000000     <absolute>
 0000:00000000       __arm64x_redirection_metadata_count 0000000000000000     <absolute>
 0000:00000000       __dynamic_value_reloc_table 0000000000000000     <absolute>
 0000:00000000       __enclave_config           0000000000000000     <absolute>
 0000:00000000       __guard_check_icall_a64n_fptr 0000000000000000     <absolute>
 0000:00000000       __guard_eh_cont_count      0000000000000000     <absolute>
 0000:00000000       __guard_eh_cont_table      0000000000000000     <absolute>
 0000:00000000       __guard_fids_count         0000000000000000     <absolute>
 0000:00000000       __guard_fids_table         0000000000000000     <absolute>
 0000:00000000       __guard_iat_count          0000000000000000     <absolute>
 0000:00000000       __guard_iat_table          0000000000000000     <absolute>
 0000:00000000       __guard_longjmp_count      0000000000000000     <absolute>
 0000:00000000       __guard_longjmp_table      0000000000000000     <absolute>
 0000:00000000       __hybrid_auxiliary_delayload_iat 0000000000000000     <absolute>
 0000:00000000       __hybrid_auxiliary_delayload_iat_copy 0000000000000000     <absolute>
 0000:00000000       __hybrid_auxiliary_iat     0000000000000000     <absolute>
 0000:00000000       __hybrid_auxiliary_iat_copy 0000000000000000     <absolute>
 0000:00000000       __hybrid_code_map          0000000000000000     <absolute>
 0000:00000000       __hybrid_code_map_count    0000000000000000     <absolute>
 0000:00000000       __hybrid_image_info_bitfield 0000000000000000     <absolute>
 0000:00000000       __volatile_metadata        0000000000000000     <absolute>
 0000:00000000       __x64_code_ranges_to_entry_points 0000000000000000     <absolute>
 0000:00000000       __x64_code_ranges_to_entry_points_count 0000000000000000     <absolute>
 0000:00000100       __guard_flags              0000000000000100     <absolute>
 0000:00000000       __ImageBase                0000000140000000     <linker-defined>
 0001:00000000       __enc$textbss$begin        0000000140001000     <linker-defined>
 0001:00010000       __enc$textbss$end          0000000140011000     <linker-defined>
 0002:00003120       ??$?6U?$char_traits@D@std@@@std@@YAAEAV?$basic_ostream@DU?$char_traits@D@std@@@0@AEAV10@PEBD@Z 0000000140014120 f i Endscreen.obj
 0002:00003600       ??0Endscreen@@QEAA@PEAUSDL_Renderer@@@Z 0000000140014600 f   Endscreen.obj
 0002:00003840       ??0_Sentry_base@?$basic_ostream@DU?$char_traits@D@std@@@std@@QEAA@AEAV12@@Z 0000000140014840 f i Endscreen.obj
 0002:00003900       ??0sentry@?$basic_ostream@DU?$char_traits@D@std@@@std@@QEAA@AEAV12@@Z 0000000140014900 f i Endscreen.obj
 0002:00003a50       ??1_Sentry_base@?$basic_ostream@DU?$char_traits@D@std@@@std@@QEAA@XZ 0000000140014a50 f i Endscreen.obj
 0002:00003af0       ??1sentry@?$basic_ostream@DU?$char_traits@D@std@@@std@@QEAA@XZ 0000000140014af0 f i Endscreen.obj
 0002:00003b80       ??Bsentry@?$basic_ostream@DU?$char_traits@D@std@@@std@@QEBA_NXZ 0000000140014b80 f i Endscreen.obj
 0002:00003bd0       ?__autoclassinit2@UI@@QEAAX_K@Z 0000000140014bd0 f i Endscreen.obj
 0002:00003c10       ?__empty_global_delete@@YAXPEAX@Z 0000000140014c10 f i Endscreen.obj
 0002:00003c50       ?__empty_global_delete@@YAXPEAX_K@Z 0000000140014c50 f i Endscreen.obj
 0002:00003c50       ?__global_delete@@YAXPEAX_K@Z 0000000140014c50 f i Endscreen.obj
 0002:00003c90       ?eof@?$_Narrow_char_traits@DH@std@@SAHXZ 0000000140014c90 f i Endscreen.obj
 0002:00003cd0       ?eq_int_type@?$_Narrow_char_traits@DH@std@@SA_NAEBH0@Z 0000000140014cd0 f i Endscreen.obj
 0002:00003d50       ?length@?$_Narrow_char_traits@DH@std@@SA_KQEBD@Z 0000000140014d50 f i Endscreen.obj
 0002:00003da0       __JustMyCode_Default       0000000140014da0 f i Endscreen.obj
 0002:00003db0       ??$?0AEBV?$allocator@D@std@@$$V@?$_Compressed_pair@V?$allocator@D@std@@V?$_String_val@U?$_Simple_types@D@std@@@2@$00@std@@QEAA@U_One_then_variadic_args_t@1@AEBV?$allocator@D@1@@Z 0000000140014db0 f i Game.obj
 0002:00003e10       ??$?0D@?$allocator@U_Container_proxy@std@@@std@@QEAA@AEBV?$allocator@D@1@@Z 0000000140014e10 f i Game.obj
 0002:00003e60       ??$?0PEAD$0A@@?$basic_string@DU?$char_traits@D@std@@V?$allocator@D@2@@std@@QEAA@PEAD0AEBV?$allocator@D@1@@Z 0000000140014e60 f i Game.obj
 0002:00003fa0       ??$?0V?$allocator@D@std@@$$V@?$_Compressed_pair@V?$allocator@D@std@@V?$_String_val@U?$_Simple_types@D@std@@@2@$00@std@@QEAA@U_One_then_variadic_args_t@1@$$QEAV?$allocator@D@1@@Z 0000000140014fa0 f i Game.obj
 0002:00004000       ??$?HDU?$char_traits@D@std@@V?$allocator@D@1@@std@@YA?AV?$basic_string@DU?$char_traits@D@std@@V?$allocator@D@2@@0@QEBD$$QEAV10@@Z 0000000140015000 f i Game.obj
 0002:000040a0       ??$_Adl_verify_range@PEADPEAD@std@@YAXAEBQEAD0@Z 00000001400150a0 f i Game.obj
 0002:00004100       ??$_Alloc_proxy@V?$allocator@U_Container_proxy@std@@@std@@@_Container_base12@std@@QEAAX$$QEAV?$allocator@U_Container_proxy@std@@@1@@Z 0000000140015100 f i Game.obj
 0002:000041b0       ??$_Allocate@$0BA@U_Default_allocate_traits@std@@$0A@@std@@YAPEAX_K@Z 00000001400151b0 f i Game.obj
 0002:00004230       ??$_Allocate_manually_vector_aligned@U_Default_allocate_traits@std@@@std@@YAPEAX_K@Z 0000000140015230 f i Game.obj
 0002:00004390       ??$_Construct@$00PEAD@?$basic_string@DU?$char_traits@D@std@@V?$allocator@D@2@@std@@AEAAXQEAD_K@Z 0000000140015390 f i Game.obj
 0002:000046b0       ??$_Construct_in_place@PEADAEAPEAD@std@@YAXAEAPEAD0@Z 00000001400156b0 f i Game.obj
 0002:00004730       ??$_Construct_in_place@PEADAEBQEAD@std@@YAXAEAPEADAEBQEAD@Z 0000000140015730 f i Game.obj
 0002:000047b0       ??$_Construct_in_place@U_Container_proxy@std@@PEAU_Container_base12@2@@std@@YAXAEAU_Container_proxy@0@$$QEAPEAU_Container_base12@0@@Z 00000001400157b0 f i Game.obj
 0002:00004830       ??$_Convert_size@_K_K@std@@YA_K_K@Z 0000000140015830 f i Game.obj
 0002:00004870       ??$_Deallocate@$0BA@$0A@@std@@YAXPEAX_K@Z 0000000140015870 f i Game.obj
 0002:000048f0       ??$_Deallocate_plain@V?$allocator@U_Container_proxy@std@@@std@@@std@@YAXAEAV?$allocator@U_Container_proxy@std@@@0@QEAU_Container_proxy@0@@Z 00000001400158f0 f i Game.obj
 0002:00004950       ??$_Delete_plain_internal@V?$allocator@U_Container_proxy@std@@@std@@@std@@YAXAEAV?$allocator@U_Container_proxy@std@@@0@QEAU_Container_proxy@0@@Z 0000000140015950 f i Game.obj
 0002:000049b0       ??$_Destroy_in_place@PEAD@std@@YAXAEAPEAD@Z 00000001400159b0 f i Game.obj
 0002:000049f0       ??$_Get_size_of_n@$00@std@@YA_K_K@Z 00000001400159f0 f i Game.obj
 0002:00004a40       ??$_Get_size_of_n@$0BA@@std@@YA_K_K@Z 0000000140015a40 f i Game.obj
 0002:00004ac0       ??$_Get_unwrapped@AEAPEAD@std@@YA?A_TAEAPEAD@Z 0000000140015ac0 f i Game.obj
 0002:00004b00       ??$_Integral_to_string@DH@std@@YA?AV?$basic_string@DU?$char_traits@D@std@@V?$allocator@D@2@@0@H@Z 0000000140015b00 f i Game.obj
 0002:00004c70       ??$_Reallocate_grow_by@V<lambda_1>@?1??insert@?$basic_string@DU?$char_traits@D@std@@V?$allocator@D@2@@std@@QEAAAEAV34@_KQEBD0@Z@_KPEBD_K@?$basic_string@DU?$char_traits@D@std@@V?$allocator@D@2@@std@@AEAAAEAV01@_KV<lambda_1>@?1??insert@01@QEAAAEAV01@0QEBD0@Z@_KPEBD3@Z 0000000140015c70 f i Game.obj
 0002:00004fb0       ??$_UIntegral_to_buff@DI@std@@YAPEADPEADI@Z 0000000140015fb0 f i Game.obj
 0002:00005050       ??$_Unfancy@D@std@@YAPEADPEAD@Z 0000000140016050 f i Game.obj
 0002:00005090       ??$_Unfancy@U_Container_proxy@std@@@std@@YAPEAU_Container_proxy@0@PEAU10@@Z 0000000140016090 f i Game.obj
 0002:000050d0       ??$_Verify_range@D@std@@YAXQEBD0@Z 00000001400160d0 f i Game.obj
 0002:000051c0       ??$addressof@$$CBV?$_String_val@U?$_Simple_types@D@std@@@std@@@std@@YAPEBV?$_String_val@U?$_Simple_types@D@std@@@0@AEBV10@@Z 00000001400161c0 f i Game.obj
 0002:00005200       ??$addressof@PEAD@std@@YAPEAPEADAEAPEAD@Z 0000000140016200 f i Game.obj
 0002:00005240       ??$addressof@U_Container_base12@std@@@std@@YAPEAU_Container_base12@0@AEAU10@@Z 0000000140016240 f i Game.obj
 0002:00005280       ??$addressof@U_Container_proxy@std@@@std@@YAPEAU_Container_proxy@0@AEAU10@@Z 0000000140016280 f i Game.obj
 0002:000052c0       ??$addressof@V?$_String_val@U?$_Simple_types@D@std@@@std@@@std@@YAPEAV?$_String_val@U?$_Simple_types@D@std@@@0@AEAV10@@Z 00000001400162c0 f i Game.obj
 0002:00005300       ??$end@D$0BF@@std@@YAPEADAEAY0BF@D@Z 0000000140016300 f i Game.obj
 0002:00005350       ??$endl@DU?$char_traits@D@std@@@std@@YAAEAV?$basic_ostream@DU?$char_traits@D@std@@@0@AEAV10@@Z 0000000140016350 f i Game.obj
 0002:000053e0       ??$exchange@PEAU_Iterator_base12@std@@$$T@std@@YAPEAU_Iterator_base12@0@AEAPEAU10@$$QEA$$T@Z 00000001400163e0 f i Game.obj
 0002:00005450       ??$max@_K@std@@YAAEB_KAEB_K0@Z 0000000140016450 f i Game.obj
 0002:000054f0       ??$min@_K@std@@YAAEB_KAEB_K0@Z 00000001400164f0 f i Game.obj
 0002:00005590       ??0?$_Container_proxy_ptr12@V?$allocator@U_Container_proxy@std@@@std@@@std@@QEAA@AEAV?$allocator@U_Container_proxy@std@@@1@AEAU_Container_base12@1@@Z 0000000140016590 f i Game.obj
 0002:00005680       ??0?$_String_val@U?$_Simple_types@D@std@@@std@@QEAA@XZ 0000000140016680 f i Game.obj
 0002:00005710       ??0?$allocator@D@std@@QEAA@XZ 0000000140016710 f i Game.obj
 0002:00005750       ??0?$basic_string@DU?$char_traits@D@std@@V?$allocator@D@2@@std@@QEAA@$$QEAV01@@Z 0000000140016750 f i Game.obj
 0002:00005810       ??0Game@@QEAA@XZ           0000000140016810 f   Game.obj
 0002:00005890       ??0_Basic_container_proxy_ptr12@std@@IEAA@XZ 0000000140016890 f i Game.obj
 0002:000058e0       ??0_Bxty@?$_String_val@U?$_Simple_types@D@std@@@std@@QEAA@XZ 00000001400168e0 f i Game.obj
 0002:00005940       ??0_Container_base12@std@@QEAA@XZ 0000000140016940 f i Game.obj
 0002:00005990       ??0_Container_proxy@std@@QEAA@PEAU_Container_base12@1@@Z 0000000140016990 f i Game.obj
 0002:00005a00       ??0bad_alloc@std@@AEAA@QEBD@Z 0000000140016a00 f i Game.obj
 0002:00005a80       ??0bad_alloc@std@@QEAA@AEBV01@@Z 0000000140016a80 f i Game.obj
 0002:00005ae0       ??0bad_array_new_length@std@@QEAA@AEBV01@@Z 0000000140016ae0 f i Game.obj
 0002:00005b40       ??0bad_array_new_length@std@@QEAA@XZ 0000000140016b40 f i Game.obj
 0002:00005bb0       ??0exception@std@@QEAA@AEBV01@@Z 0000000140016bb0 f i Game.obj
 0002:00005c50       ??0exception@std@@QEAA@QEBDH@Z 0000000140016c50 f i Game.obj
 0002:00005cf0       ??1?$_Compressed_pair@V?$allocator@D@std@@V?$_String_val@U?$_Simple_types@D@std@@@2@$00@std@@QEAA@XZ 0000000140016cf0 f i Game.obj
 0002:00005d30       ??1?$_Container_proxy_ptr12@V?$allocator@U_Container_proxy@std@@@std@@@std@@QEAA@XZ 0000000140016d30 f i Game.obj
 0002:00005da0       ??1?$_String_val@U?$_Simple_types@D@std@@@std@@QEAA@XZ 0000000140016da0 f i Game.obj
 0002:00005de0       ??1?$basic_string@DU?$char_traits@D@std@@V?$allocator@D@2@@std@@QEAA@XZ 0000000140016de0 f i Game.obj
 0002:00005ef0       ??1Game@@QEAA@XZ           0000000140016ef0 f   Game.obj
 0002:00005f60       ??1_Bxty@?$_String_val@U?$_Simple_types@D@std@@@std@@QEAA@XZ 0000000140016f60 f i Game.obj
 0002:00005fa0       ??1bad_alloc@std@@UEAA@XZ  0000000140016fa0 f i Game.obj
 0002:00005fe0       ??1bad_array_new_length@std@@UEAA@XZ 0000000140016fe0 f i Game.obj
 0002:00006020       ??1exception@std@@UEAA@XZ  0000000140017020 f i Game.obj
 0002:00006080       ??2@YAPEAX_KPEAX@Z         0000000140017080 f i Game.obj
 0002:000060d0       ??R<lambda_1>@?1??insert@?$basic_string@DU?$char_traits@D@std@@V?$allocator@D@2@@std@@QEAAAEAV23@_KQEBD0@Z@QEBA@QEAD10010@Z 00000001400170d0 f i Game.obj
 0002:000061f0       ??_Ebad_alloc@std@@UEAAPEAXI@Z 00000001400171f0 f i Game.obj
 0002:000061f0       ??_Gbad_alloc@std@@UEAAPEAXI@Z 00000001400171f0 f i Game.obj
 0002:00006260       ??_Ebad_array_new_length@std@@UEAAPEAXI@Z 0000000140017260 f i Game.obj
 0002:00006260       ??_Gbad_array_new_length@std@@UEAAPEAXI@Z 0000000140017260 f i Game.obj
 0002:000062d0       ??_Eexception@std@@UEAAPEAXI@Z 00000001400172d0 f i Game.obj
 0002:000062d0       ??_Gexception@std@@UEAAPEAXI@Z 00000001400172d0 f i Game.obj
 0002:00006340       ?_Activate_SSO_buffer@?$_String_val@U?$_Simple_types@D@std@@@std@@QEAAXXZ 0000000140017340 f i Game.obj
 0002:00006380       ?_Adjust_manually_vector_aligned@std@@YAXAEAPEAXAEA_K@Z 0000000140017380 f i Game.obj
 0002:000065c0       ?_Allocate@_Default_allocate_traits@std@@SAPEAX_K@Z 00000001400175c0 f i Game.obj
 0002:00006610       ?_Calculate_growth@?$basic_string@DU?$char_traits@D@std@@V?$allocator@D@2@@std@@AEBA_K_K@Z 0000000140017610 f i Game.obj
 0002:00006680       ?_Calculate_growth@?$basic_string@DU?$char_traits@D@std@@V?$allocator@D@2@@std@@CA_K_K00@Z 0000000140017680 f i Game.obj
 0002:000067e0       ?_Check_offset@?$_String_val@U?$_Simple_types@D@std@@@std@@QEBAX_K@Z 00000001400177e0 f i Game.obj
 0002:00006840       ?_Get_first@?$_Compressed_pair@V?$allocator@D@std@@V?$_String_val@U?$_Simple_types@D@std@@@2@$00@std@@QEAAAEAV?$allocator@D@2@XZ 0000000140017840 f i Game.obj
 0002:00006880       ?_Get_first@?$_Compressed_pair@V?$allocator@D@std@@V?$_String_val@U?$_Simple_types@D@std@@@2@$00@std@@QEBAAEBV?$allocator@D@2@XZ 0000000140017880 f i Game.obj
 0002:000068c0       ?_Getal@?$basic_string@DU?$char_traits@D@std@@V?$allocator@D@2@@std@@AEAAAEAV?$allocator@D@2@XZ 00000001400178c0 f i Game.obj
 0002:00006910       ?_Getal@?$basic_string@DU?$char_traits@D@std@@V?$allocator@D@2@@std@@AEBAAEBV?$allocator@D@2@XZ 0000000140017910 f i Game.obj
 0002:00006960       ?_Large_string_engaged@?$_String_val@U?$_Simple_types@D@std@@@std@@QEBA_NXZ 0000000140017960 f i Game.obj
 0002:000069d0       ?_Memcpy_val_from@?$basic_string@DU?$char_traits@D@std@@V?$allocator@D@2@@std@@AEAAXAEBV12@@Z 00000001400179d0 f i Game.obj
 0002:00006a60       ?_Myptr@?$_String_val@U?$_Simple_types@D@std@@@std@@QEAAPEADXZ 0000000140017a60 f i Game.obj
 0002:00006ae0       ?_Myptr@?$_String_val@U?$_Simple_types@D@std@@@std@@QEBAPEBDXZ 0000000140017ae0 f i Game.obj
 0002:00006b60       ?_Orphan_all@_Container_base12@std@@QEAAXXZ 0000000140017b60 f i Game.obj
 0002:00006bb0       ?_Orphan_all_locked_v3@_Container_base12@std@@AEAAXXZ 0000000140017bb0 f i Game.obj
 0002:00006c70       ?_Orphan_all_unlocked_v3@_Container_base12@std@@AEAAXXZ 0000000140017c70 f i Game.obj
 0002:00006d20       ?_Release@_Basic_container_proxy_ptr12@std@@QEAAXXZ 0000000140017d20 f i Game.obj
 0002:00006d70       ?_Start_element_lifetimes@?$basic_string@DU?$char_traits@D@std@@V?$allocator@D@2@@std@@CAXQEAD_K@Z 0000000140017d70 f i Game.obj
 0002:00006db0       ?_Swap_proxy_and_iterators@?$basic_string@DU?$char_traits@D@std@@V?$allocator@D@2@@std@@AEAAXAEAV12@@Z 0000000140017db0 f i Game.obj
 0002:00006e10       ?_Swap_proxy_and_iterators@_Container_base12@std@@QEAAXAEAU12@@Z 0000000140017e10 f i Game.obj
 0002:00006e70       ?_Swap_proxy_and_iterators_locked@_Container_base12@std@@AEAAXAEAU12@@Z 0000000140017e70 f i Game.obj
 0002:00006f40       ?_Swap_proxy_and_iterators_unlocked@_Container_base12@std@@AEAAXAEAU12@@Z 0000000140017f40 f i Game.obj
 0002:00007010       ?_Take_contents@?$basic_string@DU?$char_traits@D@std@@V?$allocator@D@2@@std@@AEAAXAEAV12@@Z 0000000140018010 f i Game.obj
 0002:000071c0       ?_Throw_bad_array_new_length@std@@YAXXZ 00000001400181c0 f i Game.obj
 0002:00007220       ?_Tidy_deallocate@?$basic_string@DU?$char_traits@D@std@@V?$allocator@D@2@@std@@AEAAXXZ 0000000140018220 f i Game.obj
 0002:00007340       ?_Tidy_init@?$basic_string@DU?$char_traits@D@std@@V?$allocator@D@2@@std@@AEAAXXZ 0000000140018340 f i Game.obj
 0002:000073e0       ?_Xlen_string@std@@YAXXZ   00000001400183e0 f i Game.obj
 0002:00007420       ?_Xran@?$_String_val@U?$_Simple_types@D@std@@@std@@SAXXZ 0000000140018420 f i Game.obj
 0002:00007460       ?allocate@?$allocator@D@std@@QEAAPEAD_K@Z 0000000140018460 f i Game.obj
 0002:000074c0       ?allocate@?$allocator@U_Container_proxy@std@@@std@@QEAAPEAU_Container_proxy@2@_K@Z 00000001400184c0 f i Game.obj
 0002:00007520       ?assign@?$_Narrow_char_traits@DH@std@@SAXAEADAEBD@Z 0000000140018520 f i Game.obj
 0002:00007580       ?c_str@?$basic_string@DU?$char_traits@D@std@@V?$allocator@D@2@@std@@QEBAPEBDXZ 0000000140018580 f i Game.obj
 0002:000075d0       ?copy@?$_Char_traits@DH@std@@SAPEADQEADQEBD_K@Z 00000001400185d0 f i Game.obj
 0002:00007640       ?deallocate@?$_Default_allocator_traits@V?$allocator@U_Container_proxy@std@@@std@@@std@@SAXAEAV?$allocator@U_Container_proxy@std@@@2@QEAU_Container_proxy@2@_K@Z 0000000140018640 f i Game.obj
 0002:000076a0       ?deallocate@?$allocator@D@std@@QEAAXQEAD_K@Z 00000001400186a0 f i Game.obj
 0002:000077b0       ?init@Game@@QEAAXXZ        00000001400187b0 f   Game.obj
 0002:00007c10       ?input@Game@@QEAAXXZ       0000000140018c10 f   Game.obj
 0002:00007ce0       ?insert@?$basic_string@DU?$char_traits@D@std@@V?$allocator@D@2@@std@@QEAAAEAV12@_KQEBD0@Z 0000000140018ce0 f i Game.obj
 0002:00007fd0       ?insert@?$basic_string@DU?$char_traits@D@std@@V?$allocator@D@2@@std@@QEAAAEAV12@_KQEBD@Z 0000000140018fd0 f i Game.obj
 0002:00008050       ?loop@Game@@QEAAXXZ        0000000140019050 f   Game.obj
 0002:00008240       ?max@?$numeric_limits@_J@std@@SA_JXZ 0000000140019240 f i Game.obj
 0002:00008280       ?max_size@?$_Default_allocator_traits@V?$allocator@D@std@@@std@@SA_KAEBV?$allocator@D@2@@Z 0000000140019280 f i Game.obj
 0002:000082c0       ?max_size@?$basic_string@DU?$char_traits@D@std@@V?$allocator@D@2@@std@@QEBA_KXZ 00000001400192c0 f i Game.obj
 0002:000083e0       ?move@?$_Char_traits@DH@std@@SAPEADQEADQEBD_K@Z 00000001400193e0 f i Game.obj
 0002:00008450       ?render@Game@@QEAAXXZ      0000000140019450 f   Game.obj
 0002:00008590       ?to_string@std@@YA?AV?$basic_string@DU?$char_traits@D@std@@V?$allocator@D@2@@1@H@Z 0000000140019590 f i Game.obj
 0002:00008610       ?update@Game@@QEAAXXZ      0000000140019610 f   Game.obj
 0002:00008750       ?what@exception@std@@UEBAPEBDXZ 0000000140019750 f i Game.obj
 0002:000087d0       ??$?0$$V@?$_Compressed_pair@V?$allocator@D@std@@V?$_String_val@U?$_Simple_types@D@std@@@2@$00@std@@QEAA@U_Zero_then_variadic_args_t@1@@Z 00000001400197d0 f i Gameworld.obj
 0002:00008840       ??$?0$$V@?$_Compressed_pair@V?$allocator@VObj@@@std@@V?$_Vector_val@U?$_Simple_types@VObj@@@std@@@2@$00@std@@QEAA@U_Zero_then_variadic_args_t@1@@Z 0000000140019840 f i Gameworld.obj
 0002:000088b0       ??$?0VObj@@@?$allocator@U_Container_proxy@std@@@std@@QEAA@AEBV?$allocator@VObj@@@1@@Z 00000001400198b0 f i Gameworld.obj
 0002:00008900       ??$_Construct@$00PEBD@?$basic_string@DU?$char_traits@D@std@@V?$allocator@D@2@@std@@AEAAXQEBD_K@Z 0000000140019900 f i Gameworld.obj
 0002:00008c10       ??0?$_Vector_val@U?$_Simple_types@VObj@@@std@@@std@@QEAA@XZ 0000000140019c10 f i Gameworld.obj
 0002:00008ca0       ??0?$allocator@VObj@@@std@@QEAA@XZ 0000000140019ca0 f i Gameworld.obj
 0002:00008ce0       ??0?$basic_string@DU?$char_traits@D@std@@V?$allocator@D@2@@std@@QEAA@QEBD@Z 0000000140019ce0 f i Gameworld.obj
 0002:00008d80       ??0?$vector@VObj@@V?$allocator@VObj@@@std@@@std@@QEAA@XZ 0000000140019d80 f i Gameworld.obj
 0002:00008e10       ??0Gameworld@@QEAA@XZ      0000000140019e10 f   Gameworld.obj
 0002:00008ef0       ??0Obj@@QEAA@XZ            0000000140019ef0 f i Gameworld.obj
 0002:00008ff0       ??0Tilemap@@QEAA@XZ        0000000140019ff0 f i Gameworld.obj
 0002:00009060       ?_Get_first@?$_Compressed_pair@V?$allocator@VObj@@@std@@V?$_Vector_val@U?$_Simple_types@VObj@@@std@@@2@$00@std@@QEAAAEAV?$allocator@VObj@@@2@XZ 000000014001a060 f i Gameworld.obj
 0002:000090a0       ?_Getal@?$vector@VObj@@V?$allocator@VObj@@@std@@@std@@AEAAAEAV?$allocator@VObj@@@2@XZ 000000014001a0a0 f i Gameworld.obj
 0002:000090f0       ?__autoclassinit2@Obj@@QEAAX_K@Z 000000014001a0f0 f i Gameworld.obj
 0002:00009130       ?__autoclassinit2@Tilemap@@QEAAX_K@Z 000000014001a130 f i Gameworld.obj
 0002:00009170       ?init@Gameworld@@QEAAXPEAUSDL_Renderer@@@Z 000000014001a170 f   Gameworld.obj
 0002:00009290       ?input@Gameworld@@QEAAXTSDL_Event@@@Z 000000014001a290 f   Gameworld.obj
 0002:00009380       ?loadLevel@Gameworld@@QEAAXPEAUSDL_Renderer@@@Z 000000014001a380 f   Gameworld.obj
 0002:000093e0       ?render@Gameworld@@QEAAXPEAUSDL_Renderer@@@Z 000000014001a3e0 f   Gameworld.obj
 0002:00009450       ?setID@Obj@@QEAAXH@Z       000000014001a450 f i Gameworld.obj
 0002:000094a0       ?update@Gameworld@@QEAAXXZ 000000014001a4a0 f   Gameworld.obj
 0002:000094e0       ?getDestination@Obj@@QEBA?AUSDL_Rect@@XZ 000000014001a4e0 f i Obj.obj
 0002:00009550       ?getSource@Obj@@QEBA?AUSDL_Rect@@XZ 000000014001a550 f i Obj.obj
 0002:000095c0       ?renderer@Obj@@QEAAXPEAUSDL_Renderer@@@Z 000000014001a5c0 f   Obj.obj
 0002:000096d0       ?setDestination@Obj@@QEAAXVV2D@@@Z 000000014001a6d0 f   Obj.obj
 0002:00009740       ?setDestination@Obj@@QEAAXVV2D@@HH@Z 000000014001a740 f   Obj.obj
 0002:000097e0       ?setImage@Obj@@QEAAXV?$basic_string@DU?$char_traits@D@std@@V?$allocator@D@2@@std@@PEAUSDL_Renderer@@@Z 000000014001a7e0 f   Obj.obj
 0002:00009870       ?setSource@Obj@@QEAAXHHHH@Z 000000014001a870 f   Obj.obj
 0002:00009910       ?update@Obj@@QEAAXXZ       000000014001a910 f   Obj.obj
 0002:00009950       ??0Splashscreen@@QEAA@PEAUSDL_Renderer@@@Z 000000014001a950 f   Splashscreen.obj
 0002:00009de0       ??$?0AEAPEAV_Facet_base@std@@@?$_Compressed_pair@U?$default_delete@V_Facet_base@std@@@std@@PEAV_Facet_base@2@$00@std@@QEAA@U_Zero_then_variadic_args_t@1@AEAPEAV_Facet_base@1@@Z 000000014001ade0 f i Tilemap.obj
 0002:00009e40       ??$?0U?$default_delete@V_Facet_base@std@@@std@@$0A@@?$unique_ptr@V_Facet_base@std@@U?$default_delete@V_Facet_base@std@@@2@@std@@QEAA@PEAV_Facet_base@1@@Z 000000014001ae40 f i Tilemap.obj
 0002:00009eb0       ??$_Construct_in_place@VObj@@AEBV1@@std@@YAXAEAVObj@@AEBV1@@Z 000000014001aeb0 f i Tilemap.obj
 0002:00009f30       ??$_Copy_memmove@PEAVObj@@PEAV1@@std@@YAPEAVObj@@PEAV1@00@Z 000000014001af30 f i Tilemap.obj
 0002:0000a030       ??$_Destroy_range@V?$allocator@VObj@@@std@@@std@@YAXPEAVObj@@QEAV1@AEAV?$allocator@VObj@@@0@@Z 000000014001b030 f i Tilemap.obj
 0002:0000a070       ??$_Emplace_back@VObj@@@?$_Uninitialized_backout_al@V?$allocator@VObj@@@std@@@std@@QEAAX$$QEAVObj@@@Z 000000014001b070 f i Tilemap.obj
 0002:0000a100       ??$_Emplace_back_with_unused_capacity@AEBVObj@@@?$vector@VObj@@V?$allocator@VObj@@@std@@@std@@AEAAAEAVObj@@AEBV2@@Z 000000014001b100 f i Tilemap.obj
 0002:0000a1c0       ??$_Emplace_one_at_back@AEBVObj@@@?$vector@VObj@@V?$allocator@VObj@@@std@@@std@@AEAAAEAVObj@@AEBV2@@Z 000000014001b1c0 f i Tilemap.obj
 0002:0000a270       ??$_Emplace_reallocate@AEBVObj@@@?$vector@VObj@@V?$allocator@VObj@@@std@@@std@@AEAAPEAVObj@@QEAV2@AEBV2@@Z 000000014001b270 f i Tilemap.obj
 0002:0000a550       ??$_Fgetc@D@std@@YA_NAEADPEAU_iobuf@@@Z 000000014001b550 f i Tilemap.obj
 0002:0000a5c0       ??$_Fputc@D@std@@YA_NDPEAU_iobuf@@@Z 000000014001b5c0 f i Tilemap.obj
 0002:0000a640       ??$_Get_size_of_n@$0DI@@std@@YA_K_K@Z 000000014001b640 f i Tilemap.obj
 0002:0000a6c0       ??$_Get_unwrapped@AEBQEAVObj@@@std@@YA?A_TAEBQEAVObj@@@Z 000000014001b6c0 f i Tilemap.obj
 0002:0000a700       ??$_Reallocate_grow_by@V<lambda_1>@?1??push_back@?$basic_string@DU?$char_traits@D@std@@V?$allocator@D@2@@std@@QEAAXD@Z@D@?$basic_string@DU?$char_traits@D@std@@V?$allocator@D@2@@std@@AEAAAEAV01@_KV<lambda_1>@?1??push_back@01@QEAAXD@Z@D@Z 000000014001b700 f i Tilemap.obj
 0002:0000a9e0       ??$_To_address@PEAVObj@@@std@@YA?A_PAEBQEAVObj@@@Z 000000014001b9e0 f i Tilemap.obj
 0002:0000aa20       ??$_Unfancy@VObj@@@std@@YAPEAVObj@@PEAV1@@Z 000000014001ba20 f i Tilemap.obj
 0002:0000aa60       ??$_Ungetc@D@std@@YA_NAEBDPEAU_iobuf@@@Z 000000014001ba60 f i Tilemap.obj
 0002:0000aaf0       ??$_Uninitialized_move@PEAVObj@@V?$allocator@VObj@@@std@@@std@@YAPEAVObj@@QEAV1@0PEAV1@AEAV?$allocator@VObj@@@0@@Z 000000014001baf0 f i Tilemap.obj
 0002:0000aca0       ??$addressof@$$CBV?$codecvt@DDU_Mbstatet@@@std@@@std@@YAPEBV?$codecvt@DDU_Mbstatet@@@0@AEBV10@@Z 000000014001bca0 f i Tilemap.obj
 0002:0000ace0       ??$addressof@V?$basic_filebuf@DU?$char_traits@D@std@@@std@@@std@@YAPEAV?$basic_filebuf@DU?$char_traits@D@std@@@0@AEAV10@@Z 000000014001bce0 f i Tilemap.obj
 0002:0000ad20       ??$addressof@VObj@@@std@@YAPEAVObj@@AEAV1@@Z 000000014001bd20 f i Tilemap.obj
 0002:0000ad60       ??$construct@VObj@@AEBV1@@?$_Default_allocator_traits@V?$allocator@VObj@@@std@@@std@@SAXAEAV?$allocator@VObj@@@1@QEAVObj@@AEBV3@@Z 000000014001bd60 f i Tilemap.obj
 0002:0000ade0       ??$construct@VObj@@V1@@?$_Default_allocator_traits@V?$allocator@VObj@@@std@@@std@@SAXAEAV?$allocator@VObj@@@1@QEAVObj@@$$QEAV3@@Z 000000014001bde0 f i Tilemap.obj
 0002:0000ae60       ??$exchange@PEAV_Facet_base@std@@$$T@std@@YAPEAV_Facet_base@0@AEAPEAV10@$$QEA$$T@Z 000000014001be60 f i Tilemap.obj
 0002:0000aed0       ??$use_facet@V?$codecvt@DDU_Mbstatet@@@std@@@std@@YAAEBV?$codecvt@DDU_Mbstatet@@@0@AEBVlocale@0@@Z 000000014001bed0 f i Tilemap.obj
 0002:0000b0c0       ??0?$_Uninitialized_backout_al@V?$allocator@VObj@@@std@@@std@@QEAA@PEAVObj@@AEAV?$allocator@VObj@@@1@@Z 000000014001c0c0 f i Tilemap.obj
 0002:0000b150       ??0?$basic_filebuf@DU?$char_traits@D@std@@@std@@QEAA@XZ 000000014001c150 f i Tilemap.obj
 0002:0000b1d0       ??0?$basic_ifstream@DU?$char_traits@D@std@@@std@@QEAA@PEBDHH@Z 000000014001c1d0 f i Tilemap.obj
 0002:0000b3a0       ??0?$basic_string@DU?$char_traits@D@std@@V?$allocator@D@2@@std@@QEAA@XZ 000000014001c3a0 f i Tilemap.obj
 0002:0000b440       ??0?$fpos@U_Mbstatet@@@std@@QEAA@U_Mbstatet@@_J@Z 000000014001c440 f i Tilemap.obj
 0002:0000b4d0       ??0?$fpos@U_Mbstatet@@@std@@QEAA@_J@Z 000000014001c4d0 f i Tilemap.obj
 0002:0000b560       ??0bad_cast@std@@QEAA@AEBV01@@Z 000000014001c560 f i Tilemap.obj
 0002:0000b5c0       ??0bad_cast@std@@QEAA@XZ   000000014001c5c0 f i Tilemap.obj
 0002:0000b630       ??1?$_Uninitialized_backout_al@V?$allocator@VObj@@@std@@@std@@QEAA@XZ 000000014001c630 f i Tilemap.obj
 0002:0000b6a0       ??1?$basic_filebuf@DU?$char_traits@D@std@@@std@@UEAA@XZ 000000014001c6a0 f i Tilemap.obj
 0002:0000b740       ??1?$basic_ifstream@DU?$char_traits@D@std@@@std@@UEAA@XZ 000000014001c740 f i Tilemap.obj
 0002:0000b830       ??1?$unique_ptr@V_Facet_base@std@@U?$default_delete@V_Facet_base@std@@@2@@std@@QEAA@XZ 000000014001c830 f i Tilemap.obj
 0002:0000b8a0       ??1bad_cast@std@@UEAA@XZ   000000014001c8a0 f i Tilemap.obj
 0002:0000b8e0       ??1locale@std@@QEAA@XZ     000000014001c8e0 f i Tilemap.obj
 0002:0000b9a0       ??A?$vector@VObj@@V?$allocator@VObj@@@std@@@std@@QEAAAEAVObj@@_K@Z 000000014001c9a0 f i Tilemap.obj
 0002:0000bac0       ??B?$fpos@U_Mbstatet@@@std@@QEBA_JXZ 000000014001cac0 f i Tilemap.obj
 0002:0000bb10       ??R<lambda_1>@?1??push_back@?$basic_string@DU?$char_traits@D@std@@V?$allocator@D@2@@std@@QEAAXD@Z@QEBA@QEADQEBD_KD@Z 000000014001cb10 f i Tilemap.obj
 0002:0000bbe0       ??R?$default_delete@V_Facet_base@std@@@std@@QEBAXPEAV_Facet_base@1@@Z 000000014001cbe0 f i Tilemap.obj
 0002:0000bc70       ??_D?$basic_ifstream@DU?$char_traits@D@std@@@std@@QEAAXXZ 000000014001cc70 f i Tilemap.obj
 0002:0000bccc       ??_E?$basic_ifstream@DU?$char_traits@D@std@@@std@@$4PPPPPPPM@A@EAAPEAXI@Z 000000014001cccc f i Tilemap.obj
 0002:0000bce0       ??_E?$basic_filebuf@DU?$char_traits@D@std@@@std@@UEAAPEAXI@Z 000000014001cce0 f i Tilemap.obj
 0002:0000bce0       ??_G?$basic_filebuf@DU?$char_traits@D@std@@@std@@UEAAPEAXI@Z 000000014001cce0 f i Tilemap.obj
 0002:0000bd50       ??_E?$basic_ifstream@DU?$char_traits@D@std@@@std@@UEAAPEAXI@Z 000000014001cd50 f i Tilemap.obj
 0002:0000bd50       ??_G?$basic_ifstream@DU?$char_traits@D@std@@@std@@UEAAPEAXI@Z 000000014001cd50 f i Tilemap.obj
 0002:0000bde0       ??_Ebad_cast@std@@UEAAPEAXI@Z 000000014001cde0 f i Tilemap.obj
 0002:0000bde0       ??_Gbad_cast@std@@UEAAPEAXI@Z 000000014001cde0 f i Tilemap.obj
 0002:0000be50       ?_Calculate_growth@?$vector@VObj@@V?$allocator@VObj@@@std@@@std@@AEBA_K_K@Z 000000014001ce50 f i Tilemap.obj
 0002:0000bf30       ?_Change_array@?$vector@VObj@@V?$allocator@VObj@@@std@@@std@@AEAAXQEAVObj@@_K1@Z 000000014001cf30 f i Tilemap.obj
 0002:0000c0a0       ?_Clamp_suffix_size@?$_String_val@U?$_Simple_types@D@std@@@std@@QEBA_K_K0@Z 000000014001d0a0 f i Tilemap.obj
 0002:0000c120       ?_Endwrite@?$basic_filebuf@DU?$char_traits@D@std@@@std@@IEAA_NXZ 000000014001d120 f i Tilemap.obj
 0002:0000c3a0       ?_Erase_noexcept@?$basic_string@DU?$char_traits@D@std@@V?$allocator@D@2@@std@@AEAAAEAV12@_K_K@Z 000000014001d3a0 f i Tilemap.obj
 0002:0000c4d0       ?_Get_first@?$_Compressed_pair@U?$default_delete@V_Facet_base@std@@@std@@PEAV_Facet_base@2@$00@std@@QEAAAEAU?$default_delete@V_Facet_base@std@@@2@XZ 000000014001d4d0 f i Tilemap.obj
 0002:0000c510       ?_Get_first@?$_Compressed_pair@V?$allocator@VObj@@@std@@V?$_Vector_val@U?$_Simple_types@VObj@@@std@@@2@$00@std@@QEBAAEBV?$allocator@VObj@@@2@XZ 000000014001d510 f i Tilemap.obj
 0002:0000c550       ?_Getal@?$vector@VObj@@V?$allocator@VObj@@@std@@@std@@AEBAAEBV?$allocator@VObj@@@2@XZ 000000014001d550 f i Tilemap.obj
 0002:0000c5a0       ?_Getfacet@locale@std@@QEBAPEBVfacet@12@_K@Z 000000014001d5a0 f i Tilemap.obj
 0002:0000c6b0       ?_Init@?$basic_filebuf@DU?$char_traits@D@std@@@std@@IEAAXPEAU_iobuf@@W4_Initfl@12@@Z 000000014001d6b0 f i Tilemap.obj
 0002:0000c890       ?_Initcvt@?$basic_filebuf@DU?$char_traits@D@std@@@std@@IEAAXAEBV?$codecvt@DDU_Mbstatet@@@2@@Z 000000014001d890 f i Tilemap.obj
 0002:0000c930       ?_Lock@?$basic_filebuf@DU?$char_traits@D@std@@@std@@UEAAXXZ 000000014001d930 f i Tilemap.obj
 0002:0000c9a0       ?_Orphan_range@?$vector@VObj@@V?$allocator@VObj@@@std@@@std@@AEBAXPEAVObj@@0@Z 000000014001d9a0 f i Tilemap.obj
 0002:0000ca00       ?_Orphan_range_locked@?$vector@VObj@@V?$allocator@VObj@@@std@@@std@@AEBAXPEAVObj@@0@Z 000000014001da00 f i Tilemap.obj
 0002:0000cae0       ?_Orphan_range_unlocked@?$vector@VObj@@V?$allocator@VObj@@@std@@@std@@AEBAXPEAVObj@@0@Z 000000014001dae0 f i Tilemap.obj
 0002:0000cbc0       ?_Release@?$_Uninitialized_backout_al@V?$allocator@VObj@@@std@@@std@@QEAAPEAVObj@@XZ 000000014001dbc0 f i Tilemap.obj
 0002:0000cc20       ?_Reset_back@?$basic_filebuf@DU?$char_traits@D@std@@@std@@AEAAXXZ 000000014001dc20 f i Tilemap.obj
 0002:0000ccc0       ?_Set_back@?$basic_filebuf@DU?$char_traits@D@std@@@std@@AEAAXXZ 000000014001dcc0 f i Tilemap.obj
 0002:0000cda0       ?_Throw_bad_cast@std@@YAXXZ 000000014001dda0 f i Tilemap.obj
 0002:0000ce00       ?_Unlock@?$basic_filebuf@DU?$char_traits@D@std@@@std@@UEAAXXZ 000000014001de00 f i Tilemap.obj
 0002:0000ce70       ?_Xlength@?$vector@VObj@@V?$allocator@VObj@@@std@@@std@@CAXXZ 000000014001de70 f i Tilemap.obj
 0002:0000ceb0       ?__autoclassinit2@?$_Uninitialized_backout_al@V?$allocator@VObj@@@std@@@std@@QEAAX_K@Z 000000014001deb0 f i Tilemap.obj
 0002:0000cef0       ?__autoclassinit2@?$basic_ifstream@DU?$char_traits@D@std@@@std@@QEAAX_K@Z 000000014001def0 f i Tilemap.obj
 0002:0000cf30       ?__autoclassinit2@?$unique_ptr@V_Facet_base@std@@U?$default_delete@V_Facet_base@std@@@2@@std@@QEAAX_K@Z 000000014001df30 f i Tilemap.obj
 0002:0000cf70       ?allocate@?$allocator@VObj@@@std@@QEAAPEAVObj@@_K@Z 000000014001df70 f i Tilemap.obj
 0002:0000cfd0       ?capacity@?$vector@VObj@@V?$allocator@VObj@@@std@@@std@@QEBA_KXZ 000000014001dfd0 f i Tilemap.obj
 0002:0000d040       ?clear@?$vector@VObj@@V?$allocator@VObj@@@std@@@std@@QEAAXXZ 000000014001e040 f i Tilemap.obj
 0002:0000d100       ?close@?$basic_filebuf@DU?$char_traits@D@std@@@std@@QEAAPEAV12@XZ 000000014001e100 f i Tilemap.obj
 0002:0000d1e0       ?close@?$basic_ifstream@DU?$char_traits@D@std@@@std@@QEAAXXZ 000000014001e1e0 f i Tilemap.obj
 0002:0000d270       ?data@?$basic_string@DU?$char_traits@D@std@@V?$allocator@D@2@@std@@QEBAPEBDXZ 000000014001e270 f i Tilemap.obj
 0002:0000d2c0       ?deallocate@?$allocator@VObj@@@std@@QEAAXQEAVObj@@_K@Z 000000014001e2c0 f i Tilemap.obj
 0002:0000d3d0       ?drawMap@Tilemap@@QEAAXPEAUSDL_Renderer@@@Z 000000014001e3d0 f   Tilemap.obj
 0002:0000d580       ?drawTiles@Tilemap@@QEAAXVObj@@PEAUSDL_Renderer@@@Z 000000014001e580 f   Tilemap.obj
 0002:0000d690       ?empty@?$vector@VObj@@V?$allocator@VObj@@@std@@@std@@QEBA_NXZ 000000014001e690 f i Tilemap.obj
 0002:0000d710       ?erase@?$basic_string@DU?$char_traits@D@std@@V?$allocator@D@2@@std@@QEAAAEAV12@_K0@Z 000000014001e710 f i Tilemap.obj
 0002:0000d790       ?front@?$basic_string@DU?$char_traits@D@std@@V?$allocator@D@2@@std@@QEAAAEADXZ 000000014001e790 f i Tilemap.obj
 0002:0000d890       ?getDestinationX@Obj@@QEBAHXZ 000000014001e890 f i Tilemap.obj
 0002:0000d8d0       ?getDestinationY@Obj@@QEBAHXZ 000000014001e8d0 f i Tilemap.obj
 0002:0000d910       ?getTexture@Obj@@QEBAPEAUSDL_Texture@@XZ 000000014001e910 f i Tilemap.obj
 0002:0000d960       ?imbue@?$basic_filebuf@DU?$char_traits@D@std@@@std@@MEAAXAEBVlocale@2@@Z 000000014001e960 f i Tilemap.obj
 0002:0000d9c0       ?is_open@?$basic_filebuf@DU?$char_traits@D@std@@@std@@QEBA_NXZ 000000014001e9c0 f i Tilemap.obj
 0002:0000da30       ?is_open@?$basic_ifstream@DU?$char_traits@D@std@@@std@@QEBA_NXZ 000000014001ea30 f i Tilemap.obj
 0002:0000da80       ?loadMap@Tilemap@@QEAAXPEBDPEAUSDL_Renderer@@@Z 000000014001ea80 f   Tilemap.obj
 0002:0000dea0       ?makeSolid@Obj@@QEAAX_N@Z  000000014001eea0 f i Tilemap.obj
 0002:0000def0       ?max_size@?$_Default_allocator_traits@V?$allocator@VObj@@@std@@@std@@SA_KAEBV?$allocator@VObj@@@2@@Z 000000014001eef0 f i Tilemap.obj
 0002:0000df30       ?max_size@?$vector@VObj@@V?$allocator@VObj@@@std@@@std@@QEBA_KXZ 000000014001ef30 f i Tilemap.obj
 0002:0000dfb0       ?not_eof@?$_Narrow_char_traits@DH@std@@SAHAEBH@Z 000000014001efb0 f i Tilemap.obj
 0002:0000e050       ?open@?$basic_filebuf@DU?$char_traits@D@std@@@std@@QEAAPEAV12@PEBDHH@Z 000000014001f050 f i Tilemap.obj
 0002:0000e170       ?overflow@?$basic_filebuf@DU?$char_traits@D@std@@@std@@MEAAHH@Z 000000014001f170 f i Tilemap.obj
 0002:0000e530       ?pbackfail@?$basic_filebuf@DU?$char_traits@D@std@@@std@@MEAAHH@Z 000000014001f530 f i Tilemap.obj
 0002:0000e790       ?push_back@?$basic_string@DU?$char_traits@D@std@@V?$allocator@D@2@@std@@QEAAXD@Z 000000014001f790 f i Tilemap.obj
 0002:0000e8c0       ?push_back@?$vector@VObj@@V?$allocator@VObj@@@std@@@std@@QEAAXAEBVObj@@@Z 000000014001f8c0 f i Tilemap.obj
 0002:0000e920       ?release@?$unique_ptr@V_Facet_base@std@@U?$default_delete@V_Facet_base@std@@@2@@std@@QEAAPEAV_Facet_base@2@XZ 000000014001f920 f i Tilemap.obj
 0002:0000e980       ?seekoff@?$basic_filebuf@DU?$char_traits@D@std@@@std@@MEAA?AV?$fpos@U_Mbstatet@@@2@_JHH@Z 000000014001f980 f i Tilemap.obj
 0002:0000eb80       ?seekpos@?$basic_filebuf@DU?$char_traits@D@std@@@std@@MEAA?AV?$fpos@U_Mbstatet@@@2@V32@H@Z 000000014001fb80 f i Tilemap.obj
 0002:0000ed20       ?setbuf@?$basic_filebuf@DU?$char_traits@D@std@@@std@@MEAAPEAV?$basic_streambuf@DU?$char_traits@D@std@@@2@PEAD_J@Z 000000014001fd20 f i Tilemap.obj
 0002:0000ee20       ?size@?$basic_string@DU?$char_traits@D@std@@V?$allocator@D@2@@std@@QEBA_KXZ 000000014001fe20 f i Tilemap.obj
 0002:0000ee70       ?size@?$vector@VObj@@V?$allocator@VObj@@@std@@@std@@QEBA_KXZ 000000014001fe70 f i Tilemap.obj
 0002:0000eee0       ?state@?$fpos@U_Mbstatet@@@std@@QEBA?AU_Mbstatet@@XZ 000000014001fee0 f i Tilemap.obj
 0002:0000ef40       ?sync@?$basic_filebuf@DU?$char_traits@D@std@@@std@@MEAAHXZ 000000014001ff40 f i Tilemap.obj
 0002:0000f020       ?to_char_type@?$_Narrow_char_traits@DH@std@@SADAEBH@Z 0000000140020020 f i Tilemap.obj
 0002:0000f060       ?to_int_type@?$_Narrow_char_traits@DH@std@@SAHAEBD@Z 0000000140020060 f i Tilemap.obj
 0002:0000f0a0       ?uflow@?$basic_filebuf@DU?$char_traits@D@std@@@std@@MEAAHXZ 00000001400200a0 f i Tilemap.obj
 0002:0000f520       ?underflow@?$basic_filebuf@DU?$char_traits@D@std@@@std@@MEAAHXZ 0000000140020520 f i Tilemap.obj
 0002:0000f6a0       ?xsgetn@?$basic_filebuf@DU?$char_traits@D@std@@@std@@MEAA_JPEAD_J@Z 00000001400206a0 f i Tilemap.obj
 0002:0000f990       ?xsputn@?$basic_filebuf@DU?$char_traits@D@std@@@std@@MEAA_JPEBD_J@Z 0000000140020990 f i Tilemap.obj
 0002:0000fb60       ??0Timelimit@@QEAA@XZ      0000000140020b60 f   Timelimit.obj
 0002:0000fbb0       ?getTicks@Timelimit@@QEBAHXZ 0000000140020bb0 f   Timelimit.obj
 0002:0000fc00       ?resetTicks@Timelimit@@QEAAXXZ 0000000140020c00 f   Timelimit.obj
 0002:0000fc50       ??0UI@@QEAA@HHPEAU_TTF_Font@@@Z 0000000140020c50 f   UI.obj
 0002:0000fdc0       ??0UI@@QEAA@PEBDHHPEAU_TTF_Font@@@Z 0000000140020dc0 f   UI.obj
 0002:0000ff70       ??1UI@@QEAA@XZ             0000000140020f70 f   UI.obj
 0002:0000ffc0       ?renderer@UI@@QEAAXPEAUSDL_Renderer@@@Z 0000000140020fc0 f   UI.obj
 0002:00010140       ?update@UI@@QEAAXPEBD@Z    0000000140021140 f   UI.obj
 0002:000101c0       ??0V2D@@QEAA@HH@Z          00000001400211c0 f   V2D.obj
 0002:00010240       ??0V2D@@QEAA@XZ            0000000140021240 f   V2D.obj
 0002:000102b0       ??XV2D@@QEAAAEAV0@AEBV0@@Z 00000001400212b0 f   V2D.obj
 0002:00010310       ??YV2D@@QEAAAEAV0@AEBV0@@Z 0000000140021310 f   V2D.obj
 0002:00010370       ??ZV2D@@QEAAAEAV0@AEBV0@@Z 0000000140021370 f   V2D.obj
 0002:000103d0       ??_0V2D@@QEAAAEAV0@AEBV0@@Z 00000001400213d0 f   V2D.obj
 0002:00010430       ?Add@V2D@@QEAAAEAV1@AEBV1@@Z 0000000140021430 f   V2D.obj
 0002:000104d0       ?Div@V2D@@QEAAAEAV1@AEBV1@@Z 00000001400214d0 f   V2D.obj
 0002:00010570       ?Mul@V2D@@QEAAAEAV1@AEBV1@@Z 0000000140021570 f   V2D.obj
 0002:00010610       ?Sub@V2D@@QEAAAEAV1@AEBV1@@Z 0000000140021610 f   V2D.obj
 0002:000106c0       ?__autoclassinit2@Game@@QEAAX_K@Z 00000001400216c0 f i WizardTime.obj
 0002:00010700       SDL_main                   0000000140021700 f   WizardTime.obj
 0002:000107d3       IMG_Init                   00000001400217d3 f   SDL2_image:SDL2_image.dll
 0002:000107d9       IMG_Quit                   00000001400217d9 f   SDL2_image:SDL2_image.dll
 0002:000107df       IMG_Load                   00000001400217df f   SDL2_image:SDL2_image.dll
 0002:000107e5       TTF_OpenFont               00000001400217e5 f   SDL2_ttf:SDL2_ttf.dll
 0002:000107eb       TTF_Init                   00000001400217eb f   SDL2_ttf:SDL2_ttf.dll
 0002:000107f1       TTF_Quit                   00000001400217f1 f   SDL2_ttf:SDL2_ttf.dll
 0002:000107f7       TTF_RenderText_Solid       00000001400217f7 f   SDL2_ttf:SDL2_ttf.dll
 0002:000107fd       TTF_CloseFont              00000001400217fd f   SDL2_ttf:SDL2_ttf.dll
 0002:00010803       SDL_SetRenderDrawColor     0000000140021803 f   SDL2:SDL2.dll
 0002:00010809       SDL_RenderClear            0000000140021809 f   SDL2:SDL2.dll
 0002:0001080f       SDL_RenderPresent          000000014002180f f   SDL2:SDL2.dll
 0002:00010815       SDL_GetError               0000000140021815 f   SDL2:SDL2.dll
 0002:0001081b       SDL_CreateWindow           000000014002181b f   SDL2:SDL2.dll
 0002:00010821       SDL_DestroyWindow          0000000140021821 f   SDL2:SDL2.dll
 0002:00010827       SDL_PollEvent              0000000140021827 f   SDL2:SDL2.dll
 0002:0001082d       SDL_CreateRenderer         000000014002182d f   SDL2:SDL2.dll
 0002:00010833       SDL_RenderFillRect         0000000140021833 f   SDL2:SDL2.dll
 0002:00010839       SDL_DestroyRenderer        0000000140021839 f   SDL2:SDL2.dll
 0002:0001083f       SDL_GetTicks               000000014002183f f   SDL2:SDL2.dll
 0002:00010845       SDL_Delay                  0000000140021845 f   SDL2:SDL2.dll
 0002:0001084b       SDL_Init                   000000014002184b f   SDL2:SDL2.dll
 0002:00010851       SDL_Quit                   0000000140021851 f   SDL2:SDL2.dll
 0002:00010857       SDL_CreateTextureFromSurface 0000000140021857 f   SDL2:SDL2.dll
 0002:0001085d       SDL_RenderCopyEx           000000014002185d f   SDL2:SDL2.dll
 0002:00010863       SDL_FreeSurface            0000000140021863 f   SDL2:SDL2.dll
 0002:00010869       SDL_RenderCopy             0000000140021869 f   SDL2:SDL2.dll
 0002:0001086f       SDL_DestroyTexture         000000014002186f f   SDL2:SDL2.dll
 0002:00010875       ?uncaught_exception@std@@YA_NXZ 0000000140021875 f   msvcprtd:MSVCP140D.dll
 0002:0001087b       ?good@ios_base@std@@QEBA_NXZ 000000014002187b f   msvcprtd:MSVCP140D.dll
 0002:00010881       ?flags@ios_base@std@@QEBAHXZ 0000000140021881 f   msvcprtd:MSVCP140D.dll
 0002:00010887       ?width@ios_base@std@@QEBA_JXZ 0000000140021887 f   msvcprtd:MSVCP140D.dll
 0002:0001088d       ?width@ios_base@std@@QEAA_J_J@Z 000000014002188d f   msvcprtd:MSVCP140D.dll
 0002:00010893       ?sputc@?$basic_streambuf@DU?$char_traits@D@std@@@std@@QEAAHD@Z 0000000140021893 f   msvcprtd:MSVCP140D.dll
 0002:00010899       ?sputn@?$basic_streambuf@DU?$char_traits@D@std@@@std@@QEAA_JPEBD_J@Z 0000000140021899 f   msvcprtd:MSVCP140D.dll
 0002:0001089f       ?setstate@?$basic_ios@DU?$char_traits@D@std@@@std@@QEAAXH_N@Z 000000014002189f f   msvcprtd:MSVCP140D.dll
 0002:000108a5       ?tie@?$basic_ios@DU?$char_traits@D@std@@@std@@QEBAPEAV?$basic_ostream@DU?$char_traits@D@std@@@2@XZ 00000001400218a5 f   msvcprtd:MSVCP140D.dll
 0002:000108ab       ?rdbuf@?$basic_ios@DU?$char_traits@D@std@@@std@@QEBAPEAV?$basic_streambuf@DU?$char_traits@D@std@@@2@XZ 00000001400218ab f   msvcprtd:MSVCP140D.dll
 0002:000108b1       ?fill@?$basic_ios@DU?$char_traits@D@std@@@std@@QEBADXZ 00000001400218b1 f   msvcprtd:MSVCP140D.dll
 0002:000108b7       ?_Osfx@?$basic_ostream@DU?$char_traits@D@std@@@std@@QEAAXXZ 00000001400218b7 f   msvcprtd:MSVCP140D.dll
 0002:000108bd       ?flush@?$basic_ostream@DU?$char_traits@D@std@@@std@@QEAAAEAV12@XZ 00000001400218bd f   msvcprtd:MSVCP140D.dll
 0002:000108c3       ??0_Lockit@std@@QEAA@H@Z   00000001400218c3 f   msvcprtd:MSVCP140D.dll
 0002:000108c9       ??1_Lockit@std@@QEAA@XZ    00000001400218c9 f   msvcprtd:MSVCP140D.dll
 0002:000108cf       ?_Xlength_error@std@@YAXPEBD@Z 00000001400218cf f   msvcprtd:MSVCP140D.dll
 0002:000108d5       ?_Xout_of_range@std@@YAXPEBD@Z 00000001400218d5 f   msvcprtd:MSVCP140D.dll
 0002:000108db       ?widen@?$basic_ios@DU?$char_traits@D@std@@@std@@QEBADD@Z 00000001400218db f   msvcprtd:MSVCP140D.dll
 0002:000108e1       ??6?$basic_ostream@DU?$char_traits@D@std@@@std@@QEAAAEAV01@P6AAEAV01@AEAV01@@Z@Z 00000001400218e1 f   msvcprtd:MSVCP140D.dll
 0002:000108e7       ??6?$basic_ostream@DU?$char_traits@D@std@@@std@@QEAAAEAV01@H@Z 00000001400218e7 f   msvcprtd:MSVCP140D.dll
 0002:000108ed       ?put@?$basic_ostream@DU?$char_traits@D@std@@@std@@QEAAAEAV12@D@Z 00000001400218ed f   msvcprtd:MSVCP140D.dll
 0002:00010900       ??0_Fac_node@std@@QEAA@PEAU01@PEAV_Facet_base@1@@Z 0000000140021900 f i msvcprtd:locale0_implib.obj
 0002:00010940       ??1_Fac_node@std@@QEAA@XZ  0000000140021940 f i msvcprtd:locale0_implib.obj
 0002:000109f0       ??1_Fac_tidy_reg_t@std@@QEAA@XZ 00000001400219f0 f i msvcprtd:locale0_implib.obj
 0002:00010a70       ??2_Fac_node@std@@SAPEAX_K@Z 0000000140021a70 f i msvcprtd:locale0_implib.obj
 0002:00010af0       ??3_Fac_node@std@@SAXPEAX@Z 0000000140021af0 f i msvcprtd:locale0_implib.obj
 0002:00010b20       ??_G_Fac_node@std@@QEAAPEAXI@Z 0000000140021b20 f i msvcprtd:locale0_implib.obj
 0002:00010b90       ?_Facet_Register@std@@YAXPEAV_Facet_base@1@@Z 0000000140021b90 f   msvcprtd:locale0_implib.obj
 0002:00010c10       ?__empty_global_delete@@YAXPEAXW4align_val_t@std@@@Z 0000000140021c10 f i msvcprtd:locale0_implib.obj
 0002:00010c20       ?__empty_global_delete@@YAXPEAX_KW4align_val_t@std@@@Z 0000000140021c20 f i msvcprtd:locale0_implib.obj
 0002:00010c34       ??Bid@locale@std@@QEAA_KXZ 0000000140021c34 f   msvcprtd:MSVCP140D.dll
 0002:00010c3a       ?_Getgloballocale@locale@std@@CAPEAV_Locimp@12@XZ 0000000140021c3a f   msvcprtd:MSVCP140D.dll
 0002:00010c40       ?always_noconv@codecvt_base@std@@QEBA_NXZ 0000000140021c40 f   msvcprtd:MSVCP140D.dll
 0002:00010c46       ?in@?$codecvt@DDU_Mbstatet@@@std@@QEBAHAEAU_Mbstatet@@PEBD1AEAPEBDPEAD3AEAPEAD@Z 0000000140021c46 f   msvcprtd:MSVCP140D.dll
 0002:00010c4c       ?out@?$codecvt@DDU_Mbstatet@@@std@@QEBAHAEAU_Mbstatet@@PEBD1AEAPEBDPEAD3AEAPEAD@Z 0000000140021c4c f   msvcprtd:MSVCP140D.dll
 0002:00010c52       ?unshift@?$codecvt@DDU_Mbstatet@@@std@@QEBAHAEAU_Mbstatet@@PEAD1AEAPEAD@Z 0000000140021c52 f   msvcprtd:MSVCP140D.dll
 0002:00010c58       ?_Getcat@?$codecvt@DDU_Mbstatet@@@std@@SA_KPEAPEBVfacet@locale@2@PEBV42@@Z 0000000140021c58 f   msvcprtd:MSVCP140D.dll
 0002:00010c5e       ?eof@ios_base@std@@QEBA_NXZ 0000000140021c5e f   msvcprtd:MSVCP140D.dll
 0002:00010c64       ??0?$basic_streambuf@DU?$char_traits@D@std@@@std@@IEAA@XZ 0000000140021c64 f   msvcprtd:MSVCP140D.dll
 0002:00010c6a       ??1?$basic_streambuf@DU?$char_traits@D@std@@@std@@UEAA@XZ 0000000140021c6a f   msvcprtd:MSVCP140D.dll
 0002:00010c70       ?getloc@?$basic_streambuf@DU?$char_traits@D@std@@@std@@QEBA?AVlocale@2@XZ 0000000140021c70 f   msvcprtd:MSVCP140D.dll
 0002:00010c76       ?eback@?$basic_streambuf@DU?$char_traits@D@std@@@std@@IEBAPEADXZ 0000000140021c76 f   msvcprtd:MSVCP140D.dll
 0002:00010c7c       ?gptr@?$basic_streambuf@DU?$char_traits@D@std@@@std@@IEBAPEADXZ 0000000140021c7c f   msvcprtd:MSVCP140D.dll
 0002:00010c82       ?pptr@?$basic_streambuf@DU?$char_traits@D@std@@@std@@IEBAPEADXZ 0000000140021c82 f   msvcprtd:MSVCP140D.dll
 0002:00010c88       ?egptr@?$basic_streambuf@DU?$char_traits@D@std@@@std@@IEBAPEADXZ 0000000140021c88 f   msvcprtd:MSVCP140D.dll
 0002:00010c8e       ?gbump@?$basic_streambuf@DU?$char_traits@D@std@@@std@@IEAAXH@Z 0000000140021c8e f   msvcprtd:MSVCP140D.dll
 0002:00010c94       ?setg@?$basic_streambuf@DU?$char_traits@D@std@@@std@@IEAAXPEAD00@Z 0000000140021c94 f   msvcprtd:MSVCP140D.dll
 0002:00010c9a       ?epptr@?$basic_streambuf@DU?$char_traits@D@std@@@std@@IEBAPEADXZ 0000000140021c9a f   msvcprtd:MSVCP140D.dll
 0002:00010ca0       ?_Gndec@?$basic_streambuf@DU?$char_traits@D@std@@@std@@IEAAPEADXZ 0000000140021ca0 f   msvcprtd:MSVCP140D.dll
 0002:00010ca6       ?_Gninc@?$basic_streambuf@DU?$char_traits@D@std@@@std@@IEAAPEADXZ 0000000140021ca6 f   msvcprtd:MSVCP140D.dll
 0002:00010cac       ?_Gnavail@?$basic_streambuf@DU?$char_traits@D@std@@@std@@IEBA_JXZ 0000000140021cac f   msvcprtd:MSVCP140D.dll
 0002:00010cb2       ?pbump@?$basic_streambuf@DU?$char_traits@D@std@@@std@@IEAAXH@Z 0000000140021cb2 f   msvcprtd:MSVCP140D.dll
 0002:00010cb8       ?_Pninc@?$basic_streambuf@DU?$char_traits@D@std@@@std@@IEAAPEADXZ 0000000140021cb8 f   msvcprtd:MSVCP140D.dll
 0002:00010cbe       ?_Pnavail@?$basic_streambuf@DU?$char_traits@D@std@@@std@@IEBA_JXZ 0000000140021cbe f   msvcprtd:MSVCP140D.dll
 0002:00010cc4       ?_Init@?$basic_streambuf@DU?$char_traits@D@std@@@std@@IEAAXXZ 0000000140021cc4 f   msvcprtd:MSVCP140D.dll
 0002:00010cca       ?_Init@?$basic_streambuf@DU?$char_traits@D@std@@@std@@IEAAXPEAPEAD0PEAH001@Z 0000000140021cca f   msvcprtd:MSVCP140D.dll
 0002:00010cd0       ?xsgetn@?$basic_streambuf@DU?$char_traits@D@std@@@std@@MEAA_JPEAD_J@Z 0000000140021cd0 f   msvcprtd:MSVCP140D.dll
 0002:00010cd6       ?xsputn@?$basic_streambuf@DU?$char_traits@D@std@@@std@@MEAA_JPEBD_J@Z 0000000140021cd6 f   msvcprtd:MSVCP140D.dll
 0002:00010cdc       ??1?$basic_ios@DU?$char_traits@D@std@@@std@@UEAA@XZ 0000000140021cdc f   msvcprtd:MSVCP140D.dll
 0002:00010ce2       ??0?$basic_ios@DU?$char_traits@D@std@@@std@@IEAA@XZ 0000000140021ce2 f   msvcprtd:MSVCP140D.dll
 0002:00010ce8       ??0?$basic_istream@DU?$char_traits@D@std@@@std@@QEAA@PEAV?$basic_streambuf@DU?$char_traits@D@std@@@1@_N@Z 0000000140021ce8 f   msvcprtd:MSVCP140D.dll
 0002:00010cee       ??1?$basic_istream@DU?$char_traits@D@std@@@std@@UEAA@XZ 0000000140021cee f   msvcprtd:MSVCP140D.dll
 0002:00010cf4       ??5?$basic_istream@DU?$char_traits@D@std@@@std@@QEAAAEAV01@AEAH@Z 0000000140021cf4 f   msvcprtd:MSVCP140D.dll
 0002:00010cfa       ?_Fiopen@std@@YAPEAU_iobuf@@PEBDHH@Z 0000000140021cfa f   msvcprtd:MSVCP140D.dll
 0002:00010d00       ?showmanyc@?$basic_streambuf@DU?$char_traits@D@std@@@std@@MEAA_JXZ 0000000140021d00 f   msvcprtd:MSVCP140D.dll
 0002:00010d06       ?_Xbad_alloc@std@@YAXXZ    0000000140021d06 f   msvcprtd:MSVCP140D.dll
 0002:00010d10       ??2@YAPEAX_K@Z             0000000140021d10 f   MSVCRTD:new_scalar.obj
 0002:00010d80       ??3@YAXPEAX_K@Z            0000000140021d80 f   MSVCRTD:delete_scalar_size.obj
 0002:00010db0       _RTC_AllocaHelper          0000000140021db0 f   MSVCRTD:stack.obj
 0002:00010e00       _RTC_CheckStackVars        0000000140021e00 f   MSVCRTD:stack.obj
 0002:00010eb0       _RTC_CheckStackVars2       0000000140021eb0 f   MSVCRTD:stack.obj
 0002:00011000       _CRT_RTC_INIT              0000000140022000 f   MSVCRTD:init.obj
 0002:00011010       _CRT_RTC_INITW             0000000140022010 f   MSVCRTD:init.obj
 0002:00011020       _RTC_InitBase              0000000140022020 f   MSVCRTD:init.obj
 0002:00011070       _RTC_Shutdown              0000000140022070 f   MSVCRTD:init.obj
 0002:000110a0       __CheckForDebuggerJustMyCode 00000001400220a0 f   MSVCRTD:debugger_jmc.obj
 0002:000110f0       __GSHandlerCheck_EH4       00000001400220f0 f   MSVCRTD:gshandlereh4.obj
 0002:000111d0       __security_check_cookie    00000001400221d0 f   MSVCRTD:amdsecgs.obj
 0002:00011200       __GSHandlerCheck           0000000140022200 f   MSVCRTD:gshandler.obj
 0002:00011250       __GSHandlerCheckCommon     0000000140022250 f   MSVCRTD:gshandler.obj
 0002:00011390       ??1type_info@@UEAA@XZ      0000000140022390 f   MSVCRTD:std_type_info_static.obj
 0002:000113b0       ??_Etype_info@@UEAAPEAXI@Z 00000001400223b0 f i MSVCRTD:std_type_info_static.obj
 0002:000113b0       ??_Gtype_info@@UEAAPEAXI@Z 00000001400223b0 f i MSVCRTD:std_type_info_static.obj
 0002:00011750       ?configure_argv@__scrt_narrow_argv_policy@@SAHXZ 0000000140022750 f i MSVCRTD:exe_main.obj
 0002:00011770       ?initialize_environment@__scrt_narrow_environment_policy@@SAHXZ 0000000140022770 f i MSVCRTD:exe_main.obj
 0002:000117e0       ?set_app_type@__scrt_main_policy@@SAXXZ 00000001400227e0 f i MSVCRTD:exe_main.obj
 0002:00011800       ?set_commode@__scrt_file_policy@@SAXXZ 0000000140022800 f i MSVCRTD:exe_main.obj
 0002:00011830       ?set_fmode@__scrt_file_policy@@SAXXZ 0000000140022830 f i MSVCRTD:exe_main.obj
 0002:00011850       mainCRTStartup             0000000140022850 f   MSVCRTD:exe_main.obj
 0002:00011a20       NtCurrentTeb               0000000140022a20 f i MSVCRTD:utility.obj
 0002:00011a30       __scrt_acquire_startup_lock 0000000140022a30 f   MSVCRTD:utility.obj
 0002:00011ab0       __scrt_dllmain_after_initialize_c 0000000140022ab0 f   MSVCRTD:utility.obj
 0002:00011af0       __scrt_dllmain_before_initialize_c 0000000140022af0 f   MSVCRTD:utility.obj
 0002:00011b20       __scrt_dllmain_crt_thread_attach 0000000140022b20 f   MSVCRTD:utility.obj
 0002:00011b60       __scrt_dllmain_crt_thread_detach 0000000140022b60 f   MSVCRTD:utility.obj
 0002:00011b80       __scrt_dllmain_exception_filter 0000000140022b80 f   MSVCRTD:utility.obj
 0002:00011c00       __scrt_dllmain_uninitialize_c 0000000140022c00 f   MSVCRTD:utility.obj
 0002:00011c40       __scrt_dllmain_uninitialize_critical 0000000140022c40 f   MSVCRTD:utility.obj
 0002:00011c60       __scrt_initialize_crt      0000000140022c60 f   MSVCRTD:utility.obj
 0002:00011cc0       __scrt_initialize_onexit_tables 0000000140022cc0 f   MSVCRTD:utility.obj
 0002:00011e10       __scrt_is_nonwritable_in_current_image 0000000140022e10 f   MSVCRTD:utility.obj
 0002:00011ec0       __scrt_release_startup_lock 0000000140022ec0 f   MSVCRTD:utility.obj
 0002:00011f00       __scrt_uninitialize_crt    0000000140022f00 f   MSVCRTD:utility.obj
 0002:00011f50       _onexit                    0000000140022f50 f   MSVCRTD:utility.obj
 0002:00011ff0       at_quick_exit              0000000140022ff0 f   MSVCRTD:utility.obj
 0002:00012050       atexit                     0000000140023050 f   MSVCRTD:utility.obj
 0002:00012090       _guard_check_icall_nop     0000000140023090 f i MSVCRTD:guard_support.obj
 0002:000120a0       ReadNoFence64              00000001400230a0 f i MSVCRTD:guard_support.obj
 0002:000120d0       ReadPointerNoFence         00000001400230d0 f i MSVCRTD:guard_support.obj
 0002:000120f0       __castguard_check_failure_debugbreak 00000001400230f0 f i MSVCRTD:guard_support.obj
 0002:00012120       __castguard_check_failure_fastfail 0000000140023120 f i MSVCRTD:guard_support.obj
 0002:00012150       __castguard_check_failure_nop 0000000140023150 f i MSVCRTD:guard_support.obj
 0002:00012160       __castguard_check_failure_os_handled 0000000140023160 f i MSVCRTD:guard_support.obj
 0002:000121d0       __castguard_check_failure_user_handled 00000001400231d0 f i MSVCRTD:guard_support.obj
 0002:000122e0       __castguard_set_user_handler 00000001400232e0 f i MSVCRTD:guard_support.obj
 0002:00012310       __castguard_slow_path_check_debugbreak 0000000140023310 f i MSVCRTD:guard_support.obj
 0002:00012360       __castguard_slow_path_check_fastfail 0000000140023360 f i MSVCRTD:guard_support.obj
 0002:000123c0       __castguard_slow_path_check_nop 00000001400233c0 f i MSVCRTD:guard_support.obj
 0002:000123e0       __castguard_slow_path_check_os_handled 00000001400233e0 f i MSVCRTD:guard_support.obj
 0002:00012440       __castguard_slow_path_check_user_handled 0000000140023440 f i MSVCRTD:guard_support.obj
 0002:00012530       _guard_icall_checks_enforced 0000000140023530 f i MSVCRTD:guard_support.obj
 0002:00012580       _guard_rf_checks_enforced  0000000140023580 f i MSVCRTD:guard_support.obj
 0002:00012590       ??0bad_alloc@std@@QEAA@XZ  0000000140023590 f i MSVCRTD:throw_bad_alloc.obj
 0002:000125e0       ?__scrt_throw_std_bad_alloc@@YAXXZ 00000001400235e0 f   MSVCRTD:throw_bad_alloc.obj
 0002:00012610       ?__scrt_throw_std_bad_array_new_length@@YAXXZ 0000000140023610 f   MSVCRTD:throw_bad_alloc.obj
 0002:00012640       ??3@YAXPEAX@Z              0000000140023640 f   MSVCRTD:delete_scalar.obj
 0002:00012720       ?_RTC_AllocaFailure@@YAXPEAXPEAU_RTC_ALLOCA_NODE@@H@Z 0000000140023720 f   MSVCRTD:error.obj
 0002:000128d0       ?_RTC_Failure@@YAXPEAXH@Z  00000001400238d0 f   MSVCRTD:error.obj
 0002:00012940       ?_RTC_StackFailure@@YAXPEAXPEBD@Z 0000000140023940 f   MSVCRTD:error.obj
 0002:00012e80       _RTC_UninitUse             0000000140023e80 f   MSVCRTD:error.obj
 0002:00012f80       __local_stdio_printf_options 0000000140023f80 f i MSVCRTD:error.obj
 0002:00012f90       _vsprintf_s_l              0000000140023f90 f i MSVCRTD:error.obj
 0002:00013010       sprintf_s                  0000000140024010 f i MSVCRTD:error.obj
 0002:00013040       ?_RTC_GetErrorFunc@@YAP6AHHPEBDH00ZZPEBX@Z 0000000140024040 f   MSVCRTD:userapi.obj
 0002:00013050       ?_RTC_GetErrorFuncW@@YAP6AHHPEB_WH00ZZPEBX@Z 0000000140024050 f   MSVCRTD:userapi.obj
 0002:00013060       _RTC_GetErrDesc            0000000140024060 f   MSVCRTD:userapi.obj
 0002:00013080       _RTC_NumErrors             0000000140024080 f   MSVCRTD:userapi.obj
 0002:00013090       _RTC_SetErrorFunc          0000000140024090 f   MSVCRTD:userapi.obj
 0002:000130b0       _RTC_SetErrorFuncW         00000001400240b0 f   MSVCRTD:userapi.obj
 0002:000130d0       _RTC_SetErrorType          00000001400240d0 f   MSVCRTD:userapi.obj
 0002:00013100       __raise_securityfailure    0000000140024100 f   MSVCRTD:gs_report.obj
 0002:00013150       __report_gsfailure         0000000140024150 f   MSVCRTD:gs_report.obj
 0002:00013260       __report_rangecheckfailure 0000000140024260 f   MSVCRTD:gs_report.obj
 0002:00013280       __report_securityfailure   0000000140024280 f   MSVCRTD:gs_report.obj
 0002:00013350       __report_securityfailureEx 0000000140024350 f   MSVCRTD:gs_report.obj
 0002:00013740       __security_init_cookie     0000000140024740 f   MSVCRTD:gs_support.obj
 0002:000137e0       _matherr                   00000001400247e0 f   MSVCRTD:matherr.obj
 0002:000137f0       _get_startup_argv_mode     00000001400247f0 f   MSVCRTD:argv_mode.obj
 0002:00013800       _get_startup_commit_mode   0000000140024800 f   MSVCRTD:commit_mode.obj
 0002:00013810       _get_startup_file_mode     0000000140024810 f   MSVCRTD:file_mode.obj
 0002:00013820       _get_startup_new_mode      0000000140024820 f   MSVCRTD:new_mode.obj
 0002:00013830       _get_startup_thread_locale_mode 0000000140024830 f   MSVCRTD:thread_locale.obj
 0002:00013840       ?__scrt_initialize_type_info@@YAXXZ 0000000140024840 f   MSVCRTD:tncleanup.obj
 0002:00013860       ?__scrt_uninitialize_type_info@@YAXXZ 0000000140024860 f   MSVCRTD:tncleanup.obj
 0002:00013880       _should_initialize_environment 0000000140024880 f   MSVCRTD:env_mode.obj
 0002:00013890       _initialize_invalid_parameter_handler 0000000140024890 f   MSVCRTD:invalid_parameter_handler.obj
 0002:000138a0       _initialize_denormal_control 00000001400248a0 f   MSVCRTD:denormal_control.obj
 0002:000138b0       __local_stdio_scanf_options 00000001400248b0 f i MSVCRTD:default_local_stdio_options.obj
 0002:000138c0       __scrt_initialize_default_local_stdio_options 00000001400248c0 f   MSVCRTD:default_local_stdio_options.obj
 0002:00013920       __scrt_is_user_matherr_present 0000000140024920 f   MSVCRTD:matherr_detection.obj
 0002:00013950       __scrt_get_dyn_tls_init_callback 0000000140024950 f   MSVCRTD:dyn_tls_init.obj
 0002:00013960       __scrt_get_dyn_tls_dtor_callback 0000000140024960 f   MSVCRTD:dyn_tls_dtor.obj
 0002:00013970       __crt_debugger_hook        0000000140024970 f   MSVCRTD:utility_desktop.obj
 0002:00013990       __scrt_fastfail            0000000140024990 f   MSVCRTD:utility_desktop.obj
 0002:00013b90       __scrt_get_show_window_mode 0000000140024b90 f   MSVCRTD:utility_desktop.obj
 0002:00013c00       __scrt_initialize_mta      0000000140024c00 f   MSVCRTD:utility_desktop.obj
 0002:00013c20       __scrt_initialize_winrt    0000000140024c20 f   MSVCRTD:utility_desktop.obj
 0002:00013c30       __scrt_is_managed_app      0000000140024c30 f   MSVCRTD:utility_desktop.obj
 0002:00013d00       __scrt_set_unhandled_exception_filter 0000000140024d00 f   MSVCRTD:utility_desktop.obj
 0002:00013d20       __scrt_exe_initialize_mta  0000000140024d20 f   MSVCRTD:utility_desktop.obj
 0002:00013d20       __scrt_stub_for_initialize_mta 0000000140024d20 f   MSVCRTD:utility_desktop.obj
 0002:00013d30       __scrt_unhandled_exception_filter 0000000140024d30 f   MSVCRTD:utility_desktop.obj
 0002:00013df0       _RTC_Initialize            0000000140024df0 f   MSVCRTD:initsect.obj
 0002:00013e50       _RTC_Terminate             0000000140024e50 f   MSVCRTD:initsect.obj
 0002:00013eb0       __isa_available_init       0000000140024eb0 f   MSVCRTD:cpu_disp.obj
 0002:00014340       __scrt_is_ucrt_dll_in_use  0000000140025340 f   MSVCRTD:ucrt_detection.obj
 0002:000149d0       ?_RTC_GetSrcLine@@YAHPEAEPEA_WKPEAH1K@Z 00000001400259d0 f   MSVCRTD:pdblkup.obj
 0002:00014e87       __CxxFrameHandler4         0000000140025e87 f   vcruntimed:VCRUNTIME140_1D.dll
 0002:00014e8d       memcpy                     0000000140025e8d f   vcruntimed:VCRUNTIME140D.dll
 0002:00014e93       memmove                    0000000140025e93 f   vcruntimed:VCRUNTIME140D.dll
 0002:00014e99       __std_exception_copy       0000000140025e99 f   vcruntimed:VCRUNTIME140D.dll
 0002:00014e9f       __std_exception_destroy    0000000140025e9f f   vcruntimed:VCRUNTIME140D.dll
 0002:00014ea5       _CxxThrowException         0000000140025ea5 f   vcruntimed:VCRUNTIME140D.dll
 0002:00014eab       __C_specific_handler       0000000140025eab f   vcruntimed:VCRUNTIME140D.dll
 0002:00014eb1       __C_specific_handler_noexcept 0000000140025eb1 f   vcruntimed:VCRUNTIME140D.dll
 0002:00014eb7       __std_type_info_destroy_list 0000000140025eb7 f   vcruntimed:VCRUNTIME140D.dll
 0002:00014ebd       __current_exception        0000000140025ebd f   vcruntimed:VCRUNTIME140D.dll
 0002:00014ec3       __current_exception_context 0000000140025ec3 f   vcruntimed:VCRUNTIME140D.dll
 0002:00014ec9       __vcrt_GetModuleFileNameW  0000000140025ec9 f   vcruntimed:VCRUNTIME140D.dll
 0002:00014ecf       __vcrt_GetModuleHandleW    0000000140025ecf f   vcruntimed:VCRUNTIME140D.dll
 0002:00014ed5       __vcrt_LoadLibraryExW      0000000140025ed5 f   vcruntimed:VCRUNTIME140D.dll
 0002:00014edb       strlen                     0000000140025edb f   ucrtd:ucrtbased.dll
 0002:00014ee1       _invalid_parameter         0000000140025ee1 f   ucrtd:ucrtbased.dll
 0002:00014ee7       _CrtDbgReport              0000000140025ee7 f   ucrtd:ucrtbased.dll
 0002:00014eed       _get_stream_buffer_pointers 0000000140025eed f   ucrtd:ucrtbased.dll
 0002:00014ef3       fclose                     0000000140025ef3 f   ucrtd:ucrtbased.dll
 0002:00014ef9       fflush                     0000000140025ef9 f   ucrtd:ucrtbased.dll
 0002:00014eff       fgetc                      0000000140025eff f   ucrtd:ucrtbased.dll
 0002:00014f05       fgetpos                    0000000140025f05 f   ucrtd:ucrtbased.dll
 0002:00014f0b       fputc                      0000000140025f0b f   ucrtd:ucrtbased.dll
 0002:00014f11       fread                      0000000140025f11 f   ucrtd:ucrtbased.dll
 0002:00014f17       fsetpos                    0000000140025f17 f   ucrtd:ucrtbased.dll
 0002:00014f1d       _fseeki64                  0000000140025f1d f   ucrtd:ucrtbased.dll
 0002:00014f23       fwrite                     0000000140025f23 f   ucrtd:ucrtbased.dll
 0002:00014f29       setvbuf                    0000000140025f29 f   ucrtd:ucrtbased.dll
 0002:00014f2f       ungetc                     0000000140025f2f f   ucrtd:ucrtbased.dll
 0002:00014f35       _lock_file                 0000000140025f35 f   ucrtd:ucrtbased.dll
 0002:00014f3b       _unlock_file               0000000140025f3b f   ucrtd:ucrtbased.dll
 0002:00014f41       _free_dbg                  0000000140025f41 f   ucrtd:ucrtbased.dll
 0002:00014f47       _malloc_dbg                0000000140025f47 f   ucrtd:ucrtbased.dll
 0002:00014f4d       _callnewh                  0000000140025f4d f   ucrtd:ucrtbased.dll
 0002:00014f53       malloc                     0000000140025f53 f   ucrtd:ucrtbased.dll
 0002:00014f59       _CrtDbgReportW             0000000140025f59 f   ucrtd:ucrtbased.dll
 0002:00014f5f       _seh_filter_exe            0000000140025f5f f   ucrtd:ucrtbased.dll
 0002:00014f65       _set_app_type              0000000140025f65 f   ucrtd:ucrtbased.dll
 0002:00014f6b       __setusermatherr           0000000140025f6b f   ucrtd:ucrtbased.dll
 0002:00014f71       _configure_narrow_argv     0000000140025f71 f   ucrtd:ucrtbased.dll
 0002:00014f77       _initialize_narrow_environment 0000000140025f77 f   ucrtd:ucrtbased.dll
 0002:00014f7d       _get_initial_narrow_environment 0000000140025f7d f   ucrtd:ucrtbased.dll
 0002:00014f83       _initterm                  0000000140025f83 f   ucrtd:ucrtbased.dll
 0002:00014f89       _initterm_e                0000000140025f89 f   ucrtd:ucrtbased.dll
 0002:00014f8f       exit                       0000000140025f8f f   ucrtd:ucrtbased.dll
 0002:00014f95       _exit                      0000000140025f95 f   ucrtd:ucrtbased.dll
 0002:00014f9b       _set_fmode                 0000000140025f9b f   ucrtd:ucrtbased.dll
 0002:00014fa1       __p___argc                 0000000140025fa1 f   ucrtd:ucrtbased.dll
 0002:00014fa7       __p___argv                 0000000140025fa7 f   ucrtd:ucrtbased.dll
 0002:00014fad       _cexit                     0000000140025fad f   ucrtd:ucrtbased.dll
 0002:00014fb3       _c_exit                    0000000140025fb3 f   ucrtd:ucrtbased.dll
 0002:00014fb9       _register_thread_local_exe_atexit_callback 0000000140025fb9 f   ucrtd:ucrtbased.dll
 0002:00014fbf       _configthreadlocale        0000000140025fbf f   ucrtd:ucrtbased.dll
 0002:00014fc5       _set_new_mode              0000000140025fc5 f   ucrtd:ucrtbased.dll
 0002:00014fcb       __p__commode               0000000140025fcb f   ucrtd:ucrtbased.dll
 0002:00014fd1       _seh_filter_dll            0000000140025fd1 f   ucrtd:ucrtbased.dll
 0002:00014fd7       _initialize_onexit_table   0000000140025fd7 f   ucrtd:ucrtbased.dll
 0002:00014fdd       _register_onexit_function  0000000140025fdd f   ucrtd:ucrtbased.dll
 0002:00014fe3       _execute_onexit_table      0000000140025fe3 f   ucrtd:ucrtbased.dll
 0002:00014fe9       _crt_atexit                0000000140025fe9 f   ucrtd:ucrtbased.dll
 0002:00014fef       _crt_at_quick_exit         0000000140025fef f   ucrtd:ucrtbased.dll
 0002:00014ff5       strcpy_s                   0000000140025ff5 f   ucrtd:ucrtbased.dll
 0002:00014ffb       strcat_s                   0000000140025ffb f   ucrtd:ucrtbased.dll
 0002:00015001       __stdio_common_vsprintf_s  0000000140026001 f   ucrtd:ucrtbased.dll
 0002:00015007       terminate                  0000000140026007 f   ucrtd:ucrtbased.dll
 0002:0001500d       _wmakepath_s               000000014002600d f   ucrtd:ucrtbased.dll
 0002:00015013       _wsplitpath_s              0000000140026013 f   ucrtd:ucrtbased.dll
 0002:00015019       wcscpy_s                   0000000140026019 f   ucrtd:ucrtbased.dll
 0002:00015020       WinMain                    0000000140026020 f   SDL2main:SDL_windows_main.obj
 0002:00015030       main                       0000000140026030 f   SDL2main:SDL_windows_main.obj
 0002:00015260       wmain                      0000000140026260 f   SDL2main:SDL_windows_main.obj
 0002:00015265       SDL_free                   0000000140026265 f   SDL2:SDL2.dll
 0002:0001526b       SDL_memcpy                 000000014002626b f   SDL2:SDL2.dll
 0002:00015271       SDL_wcslen                 0000000140026271 f   SDL2:SDL2.dll
 0002:00015277       SDL_strlen                 0000000140026277 f   SDL2:SDL2.dll
 0002:0001527d       SDL_iconv_string           000000014002627d f   SDL2:SDL2.dll
 0002:00015283       SDL_SetMainReady           0000000140026283 f   SDL2:SDL2.dll
 0002:00015289       SDL_ShowSimpleMessageBox   0000000140026289 f   SDL2:SDL2.dll
 0002:0001528f       GetCurrentThreadId         000000014002628f f   kernel32:KERNEL32.dll
 0002:00015295       IsDebuggerPresent          0000000140026295 f   kernel32:KERNEL32.dll
 0002:0001529b       RaiseException             000000014002629b f   kernel32:KERNEL32.dll
 0002:000152a1       MultiByteToWideChar        00000001400262a1 f   kernel32:KERNEL32.dll
 0002:000152a7       WideCharToMultiByte        00000001400262a7 f   kernel32:KERNEL32.dll
 0002:000152ad       RtlCaptureContext          00000001400262ad f   kernel32:KERNEL32.dll
 0002:000152b3       RtlLookupFunctionEntry     00000001400262b3 f   kernel32:KERNEL32.dll
 0002:000152b9       RtlVirtualUnwind           00000001400262b9 f   kernel32:KERNEL32.dll
 0002:000152bf       UnhandledExceptionFilter   00000001400262bf f   kernel32:KERNEL32.dll
 0002:000152c5       SetUnhandledExceptionFilter 00000001400262c5 f   kernel32:KERNEL32.dll
 0002:000152cb       GetCurrentProcess          00000001400262cb f   kernel32:KERNEL32.dll
 0002:000152d1       TerminateProcess           00000001400262d1 f   kernel32:KERNEL32.dll
 0002:000152d7       IsProcessorFeaturePresent  00000001400262d7 f   kernel32:KERNEL32.dll
 0002:000152dd       QueryPerformanceCounter    00000001400262dd f   kernel32:KERNEL32.dll
 0002:000152e3       GetCurrentProcessId        00000001400262e3 f   kernel32:KERNEL32.dll
 0002:000152e9       GetSystemTimeAsFileTime    00000001400262e9 f   kernel32:KERNEL32.dll
 0002:000152ef       InitializeSListHead        00000001400262ef f   kernel32:KERNEL32.dll
 0002:000152f5       GetStartupInfoW            00000001400262f5 f   kernel32:KERNEL32.dll
 0002:000152fb       GetModuleHandleW           00000001400262fb f   kernel32:KERNEL32.dll
 0002:00015301       GetLastError               0000000140026301 f   kernel32:KERNEL32.dll
 0002:00015307       HeapAlloc                  0000000140026307 f   kernel32:KERNEL32.dll
 0002:0001530d       HeapFree                   000000014002630d f   kernel32:KERNEL32.dll
 0002:00015313       GetProcessHeap             0000000140026313 f   kernel32:KERNEL32.dll
 0002:00015319       VirtualQuery               0000000140026319 f   kernel32:KERNEL32.dll
 0002:0001531f       FreeLibrary                000000014002631f f   kernel32:KERNEL32.dll
 0002:00015325       GetProcAddress             0000000140026325 f   kernel32:KERNEL32.dll
 0002:0001532b       GetCommandLineW            000000014002632b f   kernel32:KERNEL32.dll
 0002:00015331       LocalFree                  0000000140026331 f   kernel32:KERNEL32.dll
 0002:00015337       CommandLineToArgvW         0000000140026337 f   shell32:SHELL32.dll
 0002:00015340       __acrt_initialize          0000000140026340 f   MSVCRTD:ucrt_stubs.obj
 0002:00015340       __scrt_stub_for_acrt_initialize 0000000140026340 f   MSVCRTD:ucrt_stubs.obj
 0002:00015340       __vcrt_initialize          0000000140026340 f   MSVCRTD:ucrt_stubs.obj
 0002:00015350       __acrt_thread_attach       0000000140026350 f   MSVCRTD:ucrt_stubs.obj
 0002:00015350       __scrt_stub_for_acrt_thread_attach 0000000140026350 f   MSVCRTD:ucrt_stubs.obj
 0002:00015350       __vcrt_thread_attach       0000000140026350 f   MSVCRTD:ucrt_stubs.obj
 0002:00015360       __acrt_thread_detach       0000000140026360 f   MSVCRTD:ucrt_stubs.obj
 0002:00015360       __scrt_stub_for_acrt_thread_detach 0000000140026360 f   MSVCRTD:ucrt_stubs.obj
 0002:00015360       __vcrt_thread_detach       0000000140026360 f   MSVCRTD:ucrt_stubs.obj
 0002:00015370       __acrt_uninitialize        0000000140026370 f   MSVCRTD:ucrt_stubs.obj
 0002:00015370       __scrt_stub_for_acrt_uninitialize 0000000140026370 f   MSVCRTD:ucrt_stubs.obj
 0002:00015370       __vcrt_uninitialize        0000000140026370 f   MSVCRTD:ucrt_stubs.obj
 0002:00015380       __acrt_uninitialize_critical 0000000140026380 f   MSVCRTD:ucrt_stubs.obj
 0002:00015380       __scrt_stub_for_acrt_uninitialize_critical 0000000140026380 f   MSVCRTD:ucrt_stubs.obj
 0002:00015380       __vcrt_uninitialize_critical 0000000140026380 f   MSVCRTD:ucrt_stubs.obj
 0002:00015390       __scrt_stub_for_is_c_termination_complete 0000000140026390 f   MSVCRTD:ucrt_stubs.obj
 0002:00015390       _is_c_termination_complete 0000000140026390 f   MSVCRTD:ucrt_stubs.obj
 0002:000168d0       _guard_dispatch_icall_nop  00000001400278d0 f   MSVCRTD:guard_dispatch.obj
 0002:000168f0       _guard_xfg_dispatch_icall_nop 00000001400278f0 f   MSVCRTD:guard_xfg_dispatch.obj
 0003:00000000       __xc_a                     000000014002c000     MSVCRTD:initializers.obj
 0003:00000458       __xc_z                     000000014002c458     MSVCRTD:initializers.obj
 0003:00000568       __xi_a                     000000014002c568     MSVCRTD:initializers.obj
 0003:00000898       __xi_z                     000000014002c898     MSVCRTD:initializers.obj
 0003:000009a8       __xp_a                     000000014002c9a8     MSVCRTD:initializers.obj
 0003:00000ab8       __xp_z                     000000014002cab8     MSVCRTD:initializers.obj
 0003:00000bc8       __xt_a                     000000014002cbc8     MSVCRTD:initializers.obj
 0003:00000cd8       __xt_z                     000000014002ccd8     MSVCRTD:initializers.obj
 0003:00000e68       ??_C@_0BF@HHGEIMG@Can?8t?5find?5renderer?6@ 000000014002ce68     Endscreen.obj
 0003:00000e88       ??_C@_0BA@OKPBFABF@Assets?1Font?4ttf@ 000000014002ce88     Endscreen.obj
 0003:00000ea0       ??_C@_08KHOCEGEM@TIME?5UP?$CB@ 000000014002cea0     Endscreen.obj
 0003:00000eb0       ??_C@_0BD@LLIMGFII@Thanks?5for?5playing@ 000000014002ceb0     Endscreen.obj
 0003:00001578       ??_7exception@std@@6B@     000000014002d578     Game.obj
 0003:00001590       ??_C@_0BC@EOODALEL@Unknown?5exception@ 000000014002d590     Game.obj
 0003:000015b0       ??_7bad_alloc@std@@6B@     000000014002d5b0     Game.obj
 0003:000015d0       ??_7bad_array_new_length@std@@6B@ 000000014002d5d0     Game.obj
 0003:000015e8       ??_C@_0BF@KINCDENJ@bad?5array?5new?5length@ 000000014002d5e8     Game.obj
 0003:00001608       ??_C@_0BB@FCMFBGOM@invalid?5argument@ 000000014002d608     Game.obj
 0003:0000161c       ??_C@_02DKCKIIND@?$CFs@    000000014002d61c     Game.obj
 0003:00001620       ??_C@_0GC@JDLAECEI@C?3?2Program?5Files?2Microsoft?5Visu@ 000000014002d620     Game.obj
 0003:000016a0       ??_C@_1ME@PPIEIJND@?$AAC?$AA?3?$AA?2?$AAP?$AAr?$AAo?$AAg?$AAr?$AAa?$AAm?$AA?5?$AAF?$AAi?$AAl?$AAe@ 000000014002d6a0     Game.obj
 0003:0000178c       ??_C@_11LOCGONAA@@         000000014002d78c     Game.obj
 0003:00001790       ??_C@_1CG@JNLFBNGN@?$AA?$CC?$AAi?$AAn?$AAv?$AAa?$AAl?$AAi?$AAd?$AA?5?$AAa?$AAr?$AAg?$AAu?$AAm?$AAe@ 000000014002d790     Game.obj
 0003:000017c0       ??_C@_0BA@JFNIOLAK@string?5too?5long@ 000000014002d7c0     Game.obj
 0003:000017d8       ??_C@_0BM@EANPKOKA@SDL?5initialization?5failed?3?5@ 000000014002d7d8     Game.obj
 0003:00001800       ??_C@_0M@HIDLNHDE@WIZARD?5TIME@ 000000014002d800     Game.obj
 0003:00001810       ??_C@_0BJ@CAOAKD@Window?5creation?5failed?3?5@ 000000014002d810     Game.obj
 0003:00001830       ??_C@_0BL@EIKNHCIF@Renderer?5creation?5failed?3?5@ 000000014002d830     Game.obj
 0003:00001850       ??_C@_0CA@COGLKKFL@SDL_ttf?5initialization?5failed?3?5@ 000000014002d850     Game.obj
 0003:00001878       ??_C@_0CC@NHNLGDBB@SDL_image?5initialization?5failed@ 000000014002d878     Game.obj
 0003:000018a0       ??_C@_05IPNNCKNB@00?300@   000000014002d8a0     Game.obj
 0003:000018a8       ??_C@_01EEMJAFIK@?6@       000000014002d8a8     Game.obj
 0003:000018ac       ??_C@_03CPFCODKL@00?3@     000000014002d8ac     Game.obj
 0003:000018b0       ??_C@_0DG@KGHKKGBC@null?5pointer?5cannot?5point?5to?5a?5@ 000000014002d8b0     Game.obj
 0003:000018f0       ??_C@_1HA@FACCKGGH@?$AA?$CC?$AAn?$AAu?$AAl?$AAl?$AA?5?$AAp?$AAo?$AAi?$AAn?$AAt?$AAe?$AAr?$AA?5?$AAc@ 000000014002d8f0     Game.obj
 0003:00001978       ??_C@_0BI@CFPLBAOH@invalid?5string?5position@ 000000014002d978     Game.obj
 0003:00001998       ??_C@_0BJ@HAJGEHKO@transposed?5pointer?5range@ 000000014002d998     Game.obj
 0003:000019c0       ??_C@_0GD@LLGPHNLA@C?3?2Program?5Files?2Microsoft?5Visu@ 000000014002d9c0     Game.obj
 0003:00001a40       ??_C@_1MG@DDLBHPNO@?$AAC?$AA?3?$AA?2?$AAP?$AAr?$AAo?$AAg?$AAr?$AAa?$AAm?$AA?5?$AAF?$AAi?$AAl?$AAe@ 000000014002da40     Game.obj
 0003:00001b30       ??_C@_1DG@FJIKMGFD@?$AA?$CC?$AAt?$AAr?$AAa?$AAn?$AAs?$AAp?$AAo?$AAs?$AAe?$AAd?$AA?5?$AAp?$AAo?$AAi@ 000000014002db30     Game.obj
 0003:00001c90       ??_C@_0BE@HINLGNMB@Assets?1Player_1?4png@ 000000014002dc90     Gameworld.obj
 0003:00001ca8       ??_C@_0P@DBMMGICP@Assets?1Map?4map@ 000000014002dca8     Gameworld.obj
 0003:00001d94       ??_C@_05MENJNIAF@W?3?5UP@  000000014002dd94     Splashscreen.obj
 0003:00001da0       ??_C@_07OPFMGJKK@A?3?5LEFT@ 000000014002dda0     Splashscreen.obj
 0003:00001db0       ??_C@_08PDAAHIBL@D?3?5RIGHT@ 000000014002ddb0     Splashscreen.obj
 0003:00001dc0       ??_C@_0N@CBMHFAGF@SPACE?3?5MAGIC@ 000000014002ddc0     Splashscreen.obj
 0003:00002b30       ??_7bad_cast@std@@6B@      000000014002eb30     Tilemap.obj
 0003:00002b48       ??_C@_08EPJLHIJG@bad?5cast@ 000000014002eb48     Tilemap.obj
 0003:00002b60       ??_7?$basic_filebuf@DU?$char_traits@D@std@@@std@@6B@ 000000014002eb60     Tilemap.obj
 0003:00002c00       ??_7?$basic_ifstream@DU?$char_traits@D@std@@@std@@6B@ 000000014002ec00     Tilemap.obj
 0003:00002c10       ??_8?$basic_ifstream@DU?$char_traits@D@std@@@std@@7B@ 000000014002ec10     Tilemap.obj
 0003:00002c20       ??_C@_0BA@NPKPJBEB@Cant?5find?5file?6@ 000000014002ec20     Tilemap.obj
 0003:00002c38       ??_C@_0BI@JMBCPANH@assets?1Tile_Brick_1?4png@ 000000014002ec38     Tilemap.obj
 0003:00002c58       ??_C@_0BO@PFKOHNJC@vector?5subscript?5out?5of?5range@ 000000014002ec58     Tilemap.obj
 0003:00002c80       ??_C@_0GB@IOFJAIJA@C?3?2Program?5Files?2Microsoft?5Visu@ 000000014002ec80     Tilemap.obj
 0003:00002d00       ??_C@_1MC@JLIINM@?$AAC?$AA?3?$AA?2?$AAP?$AAr?$AAo?$AAg?$AAr?$AAa?$AAm?$AA?5?$AAF?$AAi?$AAl?$AAe@ 000000014002ed00     Tilemap.obj
 0003:00002df0       ??_C@_1EA@LEKOKFNB@?$AA?$CC?$AAv?$AAe?$AAc?$AAt?$AAo?$AAr?$AA?5?$AAs?$AAu?$AAb?$AAs?$AAc?$AAr?$AAi@ 000000014002edf0     Tilemap.obj
 0003:00002e40       ??_C@_0GC@GKHNEOKB@C?3?2Program?5Files?2Microsoft?5Visu@ 000000014002ee40     Tilemap.obj
 0003:00002ec0       ??_C@_1ME@BBAIHAAC@?$AAC?$AA?3?$AA?2?$AAP?$AAr?$AAo?$AAg?$AAr?$AAa?$AAm?$AA?5?$AAF?$AAi?$AAl?$AAe@ 000000014002eec0     Tilemap.obj
 0003:00002fb0       ??_C@_0BP@PFIPNLNI@front?$CI?$CJ?5called?5on?5empty?5string@ 000000014002efb0     Tilemap.obj
 0003:00002fe0       ??_C@_1EC@DINNLDHA@?$AA?$CC?$AAf?$AAr?$AAo?$AAn?$AAt?$AA?$CI?$AA?$CJ?$AA?5?$AAc?$AAa?$AAl?$AAl?$AAe?$AAd@ 000000014002efe0     Tilemap.obj
 0003:00003030       ??_C@_0BA@FOIKENOD@vector?5too?5long@ 000000014002f030     Tilemap.obj
 0003:00003048       ??_C@_0BB@OHHCHEIH@Can?8t?5find?5font?6@ 000000014002f048     UI.obj
 0003:000030d8       ??_C@_0DK@PCBCHJKC@D?3?2a?2_work?21?2s?2src?2vctools?2crt?2@ 000000014002f0d8     msvcprtd:locale0_implib.obj
 0003:00003128       ??_7type_info@@6B@         000000014002f128     MSVCRTD:std_type_info_static.obj
 0003:00003138       ??_C@_0P@GHFPNOJB@bad?5allocation@ 000000014002f138     MSVCRTD:throw_bad_alloc.obj
 0003:00003230       ??_C@_0NN@JMPELKLB@The?5value?5of?5ESP?5was?5not?5proper@ 000000014002f230     MSVCRTD:error.obj
 0003:00003340       ??_C@_0BBN@ELNNILBE@A?5cast?5to?5a?5smaller?5data?5type?5h@ 000000014002f340     MSVCRTD:error.obj
 0003:00003498       ??_C@_0BN@BPOGFMJL@Stack?5memory?5was?5corrupted?$AN?6@ 000000014002f498     MSVCRTD:error.obj
 0003:000034c0       ??_C@_0DG@DAJCDLPN@A?5local?5variable?5was?5used?5befor@ 000000014002f4c0     MSVCRTD:error.obj
 0003:00003500       ??_C@_0CM@JMIDGKLA@Stack?5memory?5around?5_alloca?5was@ 000000014002f500     MSVCRTD:error.obj
 0003:00003538       ??_C@_0BO@CHIONIOI@Unknown?5Runtime?5Check?5Error?$AN?6@ 000000014002f538     MSVCRTD:error.obj
 0003:00003560       ??_C@_1GM@CNOOJIHC@?$AAR?$AAu?$AAn?$AAt?$AAi?$AAm?$AAe?$AA?5?$AAC?$AAh?$AAe?$AAc?$AAk?$AA?5?$AAE@ 000000014002f560     MSVCRTD:error.obj
 0003:000035f0       ??_C@_1EA@NFKNIFJP@?$AAR?$AAu?$AAn?$AA?9?$AAT?$AAi?$AAm?$AAe?$AA?5?$AAC?$AAh?$AAe?$AAc?$AAk?$AA?5@ 000000014002f5f0     MSVCRTD:error.obj
 0003:00003640       ??_C@_0BB@PFFGGCJP@Unknown?5Filename@ 000000014002f640     MSVCRTD:error.obj
 0003:00003658       ??_C@_0BE@GNBOBNCK@Unknown?5Module?5Name@ 000000014002f658     MSVCRTD:error.obj
 0003:00003670       ??_C@_0CA@IODNCDPG@Run?9Time?5Check?5Failure?5?$CD?$CFd?5?9?5?$CFs@ 000000014002f670     MSVCRTD:error.obj
 0003:00003698       ??_C@_0CG@IAFNJNEE@Stack?5corrupted?5near?5unknown?5va@ 000000014002f698     MSVCRTD:error.obj
 0003:000036c8       ??_C@_05MKKEDADM@?$CF?42X?5@ 000000014002f6c8     MSVCRTD:error.obj
 0003:000036d0       ??_C@_0EJ@LJKNEOLN@Stack?5area?5around?5_alloca?5memor@ 000000014002f6d0     MSVCRTD:error.obj
 0003:00003728       ??_C@_02LLMPMKNF@?$DO?5@   000000014002f728     MSVCRTD:error.obj
 0003:00003730       ??_C@_08OMAHNMHJ@?6Data?3?5?$DM@ 000000014002f730     MSVCRTD:error.obj
 0003:00003740       ??_C@_0CK@DKGBICFE@?6Allocation?5number?5within?5this?5@ 000000014002f740     MSVCRTD:error.obj
 0003:00003778       ??_C@_07DFDJCKFN@?6Size?3?5@ 000000014002f778     MSVCRTD:error.obj
 0003:00003788       ??_C@_0N@MHFFIMFG@?6Address?3?50x@ 000000014002f788     MSVCRTD:error.obj
 0003:000037a0       ??_C@_0EI@CLEPFNGI@Stack?5area?5around?5_alloca?5memor@ 000000014002f7a0     MSVCRTD:error.obj
 0003:000037f8       ??_C@_0BK@ODNDAGKB@?$CFs?$CFs?$CFp?$CFs?$CFzd?$CFs?$CFd?$CFs?$CFs?$CFs?$CFs?$CFs@ 000000014002f7f8     MSVCRTD:error.obj
 0003:00003818       ??_C@_0DE@OHJBPMBP@A?5variable?5is?5being?5used?5withou@ 000000014002f818     MSVCRTD:error.obj
 0003:00003888       ??_C@_0BJ@HEGAHDFO@Stack?5pointer?5corruption@ 000000014002f888     MSVCRTD:userapi.obj
 0003:000038a8       ??_C@_0CK@FEGOIOPB@Cast?5to?5smaller?5type?5causing?5lo@ 000000014002f8a8     MSVCRTD:userapi.obj
 0003:000038e0       ??_C@_0BI@CIGMDCBH@Stack?5memory?5corruption@ 000000014002f8e0     MSVCRTD:userapi.obj
 0003:00003900       ??_C@_0CK@CNLNOEPB@Local?5variable?5used?5before?5init@ 000000014002f900     MSVCRTD:userapi.obj
 0003:00003938       ??_C@_0BP@OGBCLIBO@Stack?5around?5_alloca?5corrupted@ 000000014002f938     MSVCRTD:userapi.obj
 0003:000039e0       ??_C@_1EI@MLPKHBGE@?$AAa?$AAp?$AAi?$AA?9?$AAm?$AAs?$AA?9?$AAw?$AAi?$AAn?$AA?9?$AAc?$AAo?$AAr?$AAe@ 000000014002f9e0     MSVCRTD:pdblkup.obj
 0003:00003a38       ??_C@_1BK@JHLNAEJL@?$AAa?$AAd?$AAv?$AAa?$AAp?$AAi?$AA3?$AA2?$AA?4?$AAd?$AAl?$AAl@ 000000014002fa38     MSVCRTD:pdblkup.obj
 0003:00003a58       ??_C@_0O@COHOBMLB@RegOpenKeyExW@ 000000014002fa58     MSVCRTD:pdblkup.obj
 0003:00003a68       ??_C@_0BB@GLNAEDBD@RegQueryValueExW@ 000000014002fa68     MSVCRTD:pdblkup.obj
 0003:00003a80       ??_C@_0M@HLOHPNFA@RegCloseKey@ 000000014002fa80     MSVCRTD:pdblkup.obj
 0003:00003a90       ??_C@_1HE@EBEAGLFB@?$AAS?$AAO?$AAF?$AAT?$AAW?$AAA?$AAR?$AAE?$AA?2?$AAW?$AAo?$AAw?$AA6?$AA4?$AA3@ 000000014002fa90     MSVCRTD:pdblkup.obj
 0003:00003b20       ??_C@_1BG@EABPBLLF@?$AAP?$AAr?$AAo?$AAd?$AAu?$AAc?$AAt?$AAD?$AAi?$AAr@ 000000014002fb20     MSVCRTD:pdblkup.obj
 0003:00003b68       ??_C@_1BC@JINFINNJ@?$AAM?$AAS?$AAP?$AAD?$AAB?$AA1?$AA4?$AA0@ 000000014002fb68     MSVCRTD:pdblkup.obj
 0003:00003b80       ??_C@_0BB@KCIACLNC@PDBOpenValidate5@ 000000014002fb80     MSVCRTD:pdblkup.obj
 0003:00003b94       ??_C@_01KDCPPGHE@r@        000000014002fb94     MSVCRTD:pdblkup.obj
 0003:00003b98       ??_C@_0BJ@HFNMHALN@Out?5of?5memory?5?9?5aborting@ 000000014002fb98     SDL2main:SDL_windows_main.obj
 0003:00003bb8       ??_C@_0M@HFFOIJBL@Fatal?5Error@ 000000014002fbb8     SDL2main:SDL_windows_main.obj
 0003:00003bc8       ??_C@_08NBDJLNFA@UTF?916LE@ 000000014002fbc8     SDL2main:SDL_windows_main.obj
 0003:00003bd4       ??_C@_05EGJIMALK@UTF?98@   000000014002fbd4     SDL2main:SDL_windows_main.obj
 0003:00003be0       _load_config_used          000000014002fbe0     MSVCRTD:loadcfg.obj
 0003:00003f80       __CastGuardVftablesStart   000000014002ff80     MSVCRTD:guard_support.obj
 0003:00004180       __CastGuardVftablesEnd     0000000140030180     MSVCRTD:guard_support.obj
 0003:00004320       ??_R4exception@std@@6B@    0000000140030320     Game.obj
 0003:00004350       ??_R3exception@std@@8      0000000140030350     Game.obj
 0003:00004368       ??_R2exception@std@@8      0000000140030368     Game.obj
 0003:00004378       ??_R1A@?0A@EA@exception@std@@8 0000000140030378     Game.obj
 0003:000043a8       ??_R4bad_alloc@std@@6B@    00000001400303a8     Game.obj
 0003:000043d8       ??_R3bad_alloc@std@@8      00000001400303d8     Game.obj
 0003:000043f0       ??_R2bad_alloc@std@@8      00000001400303f0     Game.obj
 0003:00004408       ??_R1A@?0A@EA@bad_alloc@std@@8 0000000140030408     Game.obj
 0003:00004438       ??_R4bad_array_new_length@std@@6B@ 0000000140030438     Game.obj
 0003:00004468       ??_R3bad_array_new_length@std@@8 0000000140030468     Game.obj
 0003:00004480       ??_R2bad_array_new_length@std@@8 0000000140030480     Game.obj
 0003:000044a8       ??_R1A@?0A@EA@bad_array_new_length@std@@8 00000001400304a8     Game.obj
 0003:000044d8       ??_R4?$basic_filebuf@DU?$char_traits@D@std@@@std@@6B@ 00000001400304d8     Tilemap.obj
 0003:00004508       ??_R3?$basic_filebuf@DU?$char_traits@D@std@@@std@@8 0000000140030508     Tilemap.obj
 0003:00004520       ??_R2?$basic_filebuf@DU?$char_traits@D@std@@@std@@8 0000000140030520     Tilemap.obj
 0003:00004538       ??_R1A@?0A@EA@?$basic_filebuf@DU?$char_traits@D@std@@@std@@8 0000000140030538     Tilemap.obj
 0003:00004568       ??_R1A@?0A@EA@?$basic_streambuf@DU?$char_traits@D@std@@@std@@8 0000000140030568     Tilemap.obj
 0003:00004598       ??_R3?$basic_streambuf@DU?$char_traits@D@std@@@std@@8 0000000140030598     Tilemap.obj
 0003:000045b0       ??_R2?$basic_streambuf@DU?$char_traits@D@std@@@std@@8 00000001400305b0     Tilemap.obj
 0003:000045c0       ??_R4?$basic_ifstream@DU?$char_traits@D@std@@@std@@6B@ 00000001400305c0     Tilemap.obj
 0003:000045f0       ??_R3?$basic_ifstream@DU?$char_traits@D@std@@@std@@8 00000001400305f0     Tilemap.obj
 0003:00004608       ??_R2?$basic_ifstream@DU?$char_traits@D@std@@@std@@8 0000000140030608     Tilemap.obj
 0003:00004640       ??_R1A@?0A@EA@?$basic_ifstream@DU?$char_traits@D@std@@@std@@8 0000000140030640     Tilemap.obj
 0003:00004670       ??_R1A@?0A@EA@?$basic_istream@DU?$char_traits@D@std@@@std@@8 0000000140030670     Tilemap.obj
 0003:000046a0       ??_R3?$basic_istream@DU?$char_traits@D@std@@@std@@8 00000001400306a0     Tilemap.obj
 0003:000046b8       ??_R2?$basic_istream@DU?$char_traits@D@std@@@std@@8 00000001400306b8     Tilemap.obj
 0003:000046e8       ??_R1A@A@3FA@?$basic_ios@DU?$char_traits@D@std@@@std@@8 00000001400306e8     Tilemap.obj
 0003:00004718       ??_R3?$basic_ios@DU?$char_traits@D@std@@@std@@8 0000000140030718     Tilemap.obj
 0003:00004730       ??_R2?$basic_ios@DU?$char_traits@D@std@@@std@@8 0000000140030730     Tilemap.obj
 0003:00004758       ??_R1A@?0A@EA@?$basic_ios@DU?$char_traits@D@std@@@std@@8 0000000140030758     Tilemap.obj
 0003:00004788       ??_R1A@?0A@EA@ios_base@std@@8 0000000140030788     Tilemap.obj
 0003:000047b8       ??_R3ios_base@std@@8       00000001400307b8     Tilemap.obj
 0003:000047d0       ??_R2ios_base@std@@8       00000001400307d0     Tilemap.obj
 0003:000047e8       ??_R17?0A@EA@?$_Iosb@H@std@@8 00000001400307e8     Tilemap.obj
 0003:00004818       ??_R3?$_Iosb@H@std@@8      0000000140030818     Tilemap.obj
 0003:00004830       ??_R2?$_Iosb@H@std@@8      0000000140030830     Tilemap.obj
 0003:00004840       ??_R1A@?0A@EA@?$_Iosb@H@std@@8 0000000140030840     Tilemap.obj
 0003:00004870       ??_R1A@A@3EA@ios_base@std@@8 0000000140030870     Tilemap.obj
 0003:000048a0       ??_R17A@3EA@?$_Iosb@H@std@@8 00000001400308a0     Tilemap.obj
 0003:000048d0       ??_R4bad_cast@std@@6B@     00000001400308d0     Tilemap.obj
 0003:00004900       ??_R3bad_cast@std@@8       0000000140030900     Tilemap.obj
 0003:00004918       ??_R2bad_cast@std@@8       0000000140030918     Tilemap.obj
 0003:00004930       ??_R1A@?0A@EA@bad_cast@std@@8 0000000140030930     Tilemap.obj
 0003:00004960       ??_R4type_info@@6B@        0000000140030960     MSVCRTD:std_type_info_static.obj
 0003:00004990       ??_R3type_info@@8          0000000140030990     MSVCRTD:std_type_info_static.obj
 0003:000049a8       ??_R2type_info@@8          00000001400309a8     MSVCRTD:std_type_info_static.obj
 0003:000049b8       ??_R1A@?0A@EA@type_info@@8 00000001400309b8     MSVCRTD:std_type_info_static.obj
 0003:00004cb8       __rtc_iaa                  0000000140030cb8     MSVCRTD:initsect.obj
 0003:00004f78       __rtc_izz                  0000000140030f78     MSVCRTD:initsect.obj
 0003:00005088       __rtc_taa                  0000000140031088     MSVCRTD:initsect.obj
 0003:00005348       __rtc_tzz                  0000000140031348     MSVCRTD:initsect.obj
 0003:00007b70       _TI3?AVbad_array_new_length@std@@ 0000000140033b70     Game.obj
 0003:00007b90       _CTA3?AVbad_array_new_length@std@@ 0000000140033b90     Game.obj
 0003:00007bb0       _CT??_R0?AVbad_array_new_length@std@@@8??0bad_array_new_length@std@@QEAA@AEBV01@@Z24 0000000140033bb0     Game.obj
 0003:00007bd8       _CT??_R0?AVbad_alloc@std@@@8??0bad_alloc@std@@QEAA@AEBV01@@Z24 0000000140033bd8     Game.obj
 0003:00007c00       _CT??_R0?AVexception@std@@@8??0exception@std@@QEAA@AEBV01@@Z24 0000000140033c00     Game.obj
 0003:00007c28       _TI2?AVbad_cast@std@@      0000000140033c28     Tilemap.obj
 0003:00007c48       _CTA2?AVbad_cast@std@@     0000000140033c48     Tilemap.obj
 0003:00007c60       _CT??_R0?AVbad_cast@std@@@8??0bad_cast@std@@QEAA@AEBV01@@Z24 0000000140033c60     Tilemap.obj
 0003:00007c88       _TI2?AVbad_alloc@std@@     0000000140033c88     MSVCRTD:throw_bad_alloc.obj
 0003:00007ca8       _CTA2?AVbad_alloc@std@@    0000000140033ca8     MSVCRTD:throw_bad_alloc.obj
 0004:00000000       ?__LINE__Var@?0??_Adjust_manually_vector_aligned@std@@YAXAEAPEAXAEA_K@Z@4JA 0000000140034000     Game.obj
 0004:00000010       __security_cookie_complement 0000000140034010     MSVCRTD:gs_cookie.obj
 0004:00000018       __security_cookie          0000000140034018     MSVCRTD:gs_cookie.obj
 0004:00000024       _fltused                   0000000140034024     MSVCRTD:fltused.obj
 0004:00000028       __scrt_native_dllmain_reason 0000000140034028     MSVCRTD:utility.obj
 0004:00000030       ?_RTC_ErrorLevels@@3PAHA   0000000140034030     MSVCRTD:error.obj
 0004:00000048       __scrt_default_matherr     0000000140034048     MSVCRTD:matherr.obj
 0004:00000050       __isa_available            0000000140034050     MSVCRTD:cpu_disp.obj
 0004:00000054       __isa_enabled              0000000140034054     MSVCRTD:cpu_disp.obj
 0004:00000058       __memset_fast_string_threshold 0000000140034058     MSVCRTD:cpu_disp.obj
 0004:00000060       __memset_nt_threshold      0000000140034060     MSVCRTD:cpu_disp.obj
 0004:00000070       __scrt_ucrt_dll_is_in_use  0000000140034070     MSVCRTD:ucrt_stubs.obj
 0004:00000180       ??_R0?AVbad_array_new_length@std@@@8 0000000140034180     Game.obj
 0004:000001b8       ??_R0?AVbad_alloc@std@@@8  00000001400341b8     Game.obj
 0004:000001e8       ??_R0?AVexception@std@@@8  00000001400341e8     Game.obj
 0004:00000218       ??_R0?AVbad_cast@std@@@8   0000000140034218     Tilemap.obj
 0004:00000350       ??_R0?AV?$basic_filebuf@DU?$char_traits@D@std@@@std@@@8 0000000140034350     Tilemap.obj
 0004:000003a0       ??_R0?AV?$basic_streambuf@DU?$char_traits@D@std@@@std@@@8 00000001400343a0     Tilemap.obj
 0004:00000400       ??_R0?AV?$basic_ifstream@DU?$char_traits@D@std@@@std@@@8 0000000140034400     Tilemap.obj
 0004:00000450       ??_R0?AV?$basic_istream@DU?$char_traits@D@std@@@std@@@8 0000000140034450     Tilemap.obj
 0004:000004a0       ??_R0?AV?$basic_ios@DU?$char_traits@D@std@@@std@@@8 00000001400344a0     Tilemap.obj
 0004:000004f0       ??_R0?AVios_base@std@@@8   00000001400344f0     Tilemap.obj
 0004:00000520       ??_R0?AV?$_Iosb@H@std@@@8  0000000140034520     Tilemap.obj
 0004:00000550       ??_R0?AVtype_info@@@8      0000000140034550     MSVCRTD:std_type_info_static.obj
 0004:00000680       ?renderer@Game@@2PEAUSDL_Renderer@@EA 0000000140034680     Game.obj
 0004:00000688       ?countdown@@3PEAVUI@@EA    0000000140034688     Game.obj
 0004:00000690       ?event@@3TSDL_Event@@A     0000000140034690     Game.obj
 0004:000006c8       ?gW@@3PEAVGameworld@@EA    00000001400346c8     Game.obj
 0004:000006e0       ?player@@3PEAVObj@@EA      00000001400346e0     Gameworld.obj
 0004:000006e8       ?map@@3PEAVTilemap@@EA     00000001400346e8     Gameworld.obj
 0004:000006f8       ?_Stinit@?1??_Init@?$basic_filebuf@DU?$char_traits@D@std@@@std@@IEAAXPEAU_iobuf@@W4_Initfl@23@@Z@4U_Mbstatet@@A 00000001400346f8     Tilemap.obj
 0004:00000708       ?_Psave@?$_Facetptr@V?$codecvt@DDU_Mbstatet@@@std@@@std@@2PEBVfacet@locale@2@EB 0000000140034708     Tilemap.obj
 0004:00000728       __scrt_current_native_startup_state 0000000140034728     MSVCRTD:utility.obj
 0004:00000730       __scrt_native_startup_lock 0000000140034730     MSVCRTD:utility.obj
 0004:00000780       __castguard_check_failure_user_handled_fptr 0000000140034780     MSVCRTD:guard_support.obj
 0004:00000790       ?_OptionsStorage@?1??__local_stdio_printf_options@@9@4_KA 0000000140034790     MSVCRTD:error.obj
 0004:00000e50       ?__type_info_root_node@@3U__type_info_node@@A 0000000140034e50     MSVCRTD:tncleanup.obj
 0004:00000e68       ?_OptionsStorage@?1??__local_stdio_scanf_options@@9@4_KA 0000000140034e68     MSVCRTD:default_local_stdio_options.obj
 0004:00000e74       __scrt_debugger_hook_flag  0000000140034e74     MSVCRTD:utility_desktop.obj
 0004:00000e78       __favor                    0000000140034e78     MSVCRTD:cpu_disp.obj
 0004:00000e90       __dyn_tls_dtor_callback    0000000140034e90     <common>
 0004:00000ea8       __dyn_tls_init_callback    0000000140034ea8     <common>
 0004:00000ebc       __DebuggerCurrentSteppingThreadId 0000000140034ebc     <common>
 0006:00000000       __imp_RtlLookupFunctionEntry 0000000140039000     kernel32:KERNEL32.dll
 0006:00000008       __imp_RtlVirtualUnwind     0000000140039008     kernel32:KERNEL32.dll
 0006:00000010       __imp_UnhandledExceptionFilter 0000000140039010     kernel32:KERNEL32.dll
 0006:00000018       __imp_SetUnhandledExceptionFilter 0000000140039018     kernel32:KERNEL32.dll
 0006:00000020       __imp_GetCurrentProcess    0000000140039020     kernel32:KERNEL32.dll
 0006:00000028       __imp_TerminateProcess     0000000140039028     kernel32:KERNEL32.dll
 0006:00000030       __imp_IsProcessorFeaturePresent 0000000140039030     kernel32:KERNEL32.dll
 0006:00000038       __imp_GetCurrentThreadId   0000000140039038     kernel32:KERNEL32.dll
 0006:00000040       __imp_IsDebuggerPresent    0000000140039040     kernel32:KERNEL32.dll
 0006:00000048       __imp_RaiseException       0000000140039048     kernel32:KERNEL32.dll
 0006:00000050       __imp_QueryPerformanceCounter 0000000140039050     kernel32:KERNEL32.dll
 0006:00000058       __imp_GetCurrentProcessId  0000000140039058     kernel32:KERNEL32.dll
 0006:00000060       __imp_GetSystemTimeAsFileTime 0000000140039060     kernel32:KERNEL32.dll
 0006:00000068       __imp_InitializeSListHead  0000000140039068     kernel32:KERNEL32.dll
 0006:00000070       __imp_GetStartupInfoW      0000000140039070     kernel32:KERNEL32.dll
 0006:00000078       __imp_GetModuleHandleW     0000000140039078     kernel32:KERNEL32.dll
 0006:00000080       __imp_GetLastError         0000000140039080     kernel32:KERNEL32.dll
 0006:00000088       __imp_HeapAlloc            0000000140039088     kernel32:KERNEL32.dll
 0006:00000090       __imp_RtlCaptureContext    0000000140039090     kernel32:KERNEL32.dll
 0006:00000098       __imp_HeapFree             0000000140039098     kernel32:KERNEL32.dll
 0006:000000a0       __imp_GetProcessHeap       00000001400390a0     kernel32:KERNEL32.dll
 0006:000000a8       __imp_VirtualQuery         00000001400390a8     kernel32:KERNEL32.dll
 0006:000000b0       __imp_FreeLibrary          00000001400390b0     kernel32:KERNEL32.dll
 0006:000000b8       __imp_GetProcAddress       00000001400390b8     kernel32:KERNEL32.dll
 0006:000000c0       __imp_GetCommandLineW      00000001400390c0     kernel32:KERNEL32.dll
 0006:000000c8       __imp_LocalFree            00000001400390c8     kernel32:KERNEL32.dll
 0006:000000d0       __imp_WideCharToMultiByte  00000001400390d0     kernel32:KERNEL32.dll
 0006:000000d8       __imp_MultiByteToWideChar  00000001400390d8     kernel32:KERNEL32.dll
 0006:000000e0       \177KERNEL32_NULL_THUNK_DATA 00000001400390e0     kernel32:KERNEL32.dll
 0006:00000160       __imp_?_Xbad_alloc@std@@YAXXZ 0000000140039160     msvcprtd:MSVCP140D.dll
 0006:00000168       __imp_?uncaught_exception@std@@YA_NXZ 0000000140039168     msvcprtd:MSVCP140D.dll
 0006:00000170       __imp_?good@ios_base@std@@QEBA_NXZ 0000000140039170     msvcprtd:MSVCP140D.dll
 0006:00000178       __imp_?flags@ios_base@std@@QEBAHXZ 0000000140039178     msvcprtd:MSVCP140D.dll
 0006:00000180       __imp_?width@ios_base@std@@QEBA_JXZ 0000000140039180     msvcprtd:MSVCP140D.dll
 0006:00000188       __imp_?width@ios_base@std@@QEAA_J_J@Z 0000000140039188     msvcprtd:MSVCP140D.dll
 0006:00000190       __imp_?sputc@?$basic_streambuf@DU?$char_traits@D@std@@@std@@QEAAHD@Z 0000000140039190     msvcprtd:MSVCP140D.dll
 0006:00000198       __imp_?sputn@?$basic_streambuf@DU?$char_traits@D@std@@@std@@QEAA_JPEBD_J@Z 0000000140039198     msvcprtd:MSVCP140D.dll
 0006:000001a0       __imp_?setstate@?$basic_ios@DU?$char_traits@D@std@@@std@@QEAAXH_N@Z 00000001400391a0     msvcprtd:MSVCP140D.dll
 0006:000001a8       __imp_?tie@?$basic_ios@DU?$char_traits@D@std@@@std@@QEBAPEAV?$basic_ostream@DU?$char_traits@D@std@@@2@XZ 00000001400391a8     msvcprtd:MSVCP140D.dll
 0006:000001b0       __imp_?rdbuf@?$basic_ios@DU?$char_traits@D@std@@@std@@QEBAPEAV?$basic_streambuf@DU?$char_traits@D@std@@@2@XZ 00000001400391b0     msvcprtd:MSVCP140D.dll
 0006:000001b8       __imp_?fill@?$basic_ios@DU?$char_traits@D@std@@@std@@QEBADXZ 00000001400391b8     msvcprtd:MSVCP140D.dll
 0006:000001c0       __imp_?_Osfx@?$basic_ostream@DU?$char_traits@D@std@@@std@@QEAAXXZ 00000001400391c0     msvcprtd:MSVCP140D.dll
 0006:000001c8       __imp_?flush@?$basic_ostream@DU?$char_traits@D@std@@@std@@QEAAAEAV12@XZ 00000001400391c8     msvcprtd:MSVCP140D.dll
 0006:000001d0       __imp_?cout@std@@3V?$basic_ostream@DU?$char_traits@D@std@@@1@A 00000001400391d0     msvcprtd:MSVCP140D.dll
 0006:000001d8       __imp_??0_Lockit@std@@QEAA@H@Z 00000001400391d8     msvcprtd:MSVCP140D.dll
 0006:000001e0       __imp_??1_Lockit@std@@QEAA@XZ 00000001400391e0     msvcprtd:MSVCP140D.dll
 0006:000001e8       __imp_?_Xlength_error@std@@YAXPEBD@Z 00000001400391e8     msvcprtd:MSVCP140D.dll
 0006:000001f0       __imp_?_Xout_of_range@std@@YAXPEBD@Z 00000001400391f0     msvcprtd:MSVCP140D.dll
 0006:000001f8       __imp_?widen@?$basic_ios@DU?$char_traits@D@std@@@std@@QEBADD@Z 00000001400391f8     msvcprtd:MSVCP140D.dll
 0006:00000200       __imp_??6?$basic_ostream@DU?$char_traits@D@std@@@std@@QEAAAEAV01@P6AAEAV01@AEAV01@@Z@Z 0000000140039200     msvcprtd:MSVCP140D.dll
 0006:00000208       __imp_??6?$basic_ostream@DU?$char_traits@D@std@@@std@@QEAAAEAV01@H@Z 0000000140039208     msvcprtd:MSVCP140D.dll
 0006:00000210       __imp_?put@?$basic_ostream@DU?$char_traits@D@std@@@std@@QEAAAEAV12@D@Z 0000000140039210     msvcprtd:MSVCP140D.dll
 0006:00000218       __imp_??Bid@locale@std@@QEAA_KXZ 0000000140039218     msvcprtd:MSVCP140D.dll
 0006:00000220       __imp_?_Getgloballocale@locale@std@@CAPEAV_Locimp@12@XZ 0000000140039220     msvcprtd:MSVCP140D.dll
 0006:00000228       __imp_?always_noconv@codecvt_base@std@@QEBA_NXZ 0000000140039228     msvcprtd:MSVCP140D.dll
 0006:00000230       __imp_?in@?$codecvt@DDU_Mbstatet@@@std@@QEBAHAEAU_Mbstatet@@PEBD1AEAPEBDPEAD3AEAPEAD@Z 0000000140039230     msvcprtd:MSVCP140D.dll
 0006:00000238       __imp_?out@?$codecvt@DDU_Mbstatet@@@std@@QEBAHAEAU_Mbstatet@@PEBD1AEAPEBDPEAD3AEAPEAD@Z 0000000140039238     msvcprtd:MSVCP140D.dll
 0006:00000240       __imp_?unshift@?$codecvt@DDU_Mbstatet@@@std@@QEBAHAEAU_Mbstatet@@PEAD1AEAPEAD@Z 0000000140039240     msvcprtd:MSVCP140D.dll
 0006:00000248       __imp_?_Getcat@?$codecvt@DDU_Mbstatet@@@std@@SA_KPEAPEBVfacet@locale@2@PEBV42@@Z 0000000140039248     msvcprtd:MSVCP140D.dll
 0006:00000250       __imp_?eof@ios_base@std@@QEBA_NXZ 0000000140039250     msvcprtd:MSVCP140D.dll
 0006:00000258       __imp_??0?$basic_streambuf@DU?$char_traits@D@std@@@std@@IEAA@XZ 0000000140039258     msvcprtd:MSVCP140D.dll
 0006:00000260       __imp_??1?$basic_streambuf@DU?$char_traits@D@std@@@std@@UEAA@XZ 0000000140039260     msvcprtd:MSVCP140D.dll
 0006:00000268       __imp_?getloc@?$basic_streambuf@DU?$char_traits@D@std@@@std@@QEBA?AVlocale@2@XZ 0000000140039268     msvcprtd:MSVCP140D.dll
 0006:00000270       __imp_?eback@?$basic_streambuf@DU?$char_traits@D@std@@@std@@IEBAPEADXZ 0000000140039270     msvcprtd:MSVCP140D.dll
 0006:00000278       __imp_?id@?$codecvt@DDU_Mbstatet@@@std@@2V0locale@2@A 0000000140039278     msvcprtd:MSVCP140D.dll
 0006:00000280       __imp_?pptr@?$basic_streambuf@DU?$char_traits@D@std@@@std@@IEBAPEADXZ 0000000140039280     msvcprtd:MSVCP140D.dll
 0006:00000288       __imp_?egptr@?$basic_streambuf@DU?$char_traits@D@std@@@std@@IEBAPEADXZ 0000000140039288     msvcprtd:MSVCP140D.dll
 0006:00000290       __imp_?gbump@?$basic_streambuf@DU?$char_traits@D@std@@@std@@IEAAXH@Z 0000000140039290     msvcprtd:MSVCP140D.dll
 0006:00000298       __imp_?setg@?$basic_streambuf@DU?$char_traits@D@std@@@std@@IEAAXPEAD00@Z 0000000140039298     msvcprtd:MSVCP140D.dll
 0006:000002a0       __imp_?epptr@?$basic_streambuf@DU?$char_traits@D@std@@@std@@IEBAPEADXZ 00000001400392a0     msvcprtd:MSVCP140D.dll
 0006:000002a8       __imp_?_Gndec@?$basic_streambuf@DU?$char_traits@D@std@@@std@@IEAAPEADXZ 00000001400392a8     msvcprtd:MSVCP140D.dll
 0006:000002b0       __imp_?_Gninc@?$basic_streambuf@DU?$char_traits@D@std@@@std@@IEAAPEADXZ 00000001400392b0     msvcprtd:MSVCP140D.dll
 0006:000002b8       __imp_?_Gnavail@?$basic_streambuf@DU?$char_traits@D@std@@@std@@IEBA_JXZ 00000001400392b8     msvcprtd:MSVCP140D.dll
 0006:000002c0       __imp_?pbump@?$basic_streambuf@DU?$char_traits@D@std@@@std@@IEAAXH@Z 00000001400392c0     msvcprtd:MSVCP140D.dll
 0006:000002c8       __imp_?_Pninc@?$basic_streambuf@DU?$char_traits@D@std@@@std@@IEAAPEADXZ 00000001400392c8     msvcprtd:MSVCP140D.dll
 0006:000002d0       __imp_?_Pnavail@?$basic_streambuf@DU?$char_traits@D@std@@@std@@IEBA_JXZ 00000001400392d0     msvcprtd:MSVCP140D.dll
 0006:000002d8       __imp_?_Init@?$basic_streambuf@DU?$char_traits@D@std@@@std@@IEAAXXZ 00000001400392d8     msvcprtd:MSVCP140D.dll
 0006:000002e0       __imp_?_Init@?$basic_streambuf@DU?$char_traits@D@std@@@std@@IEAAXPEAPEAD0PEAH001@Z 00000001400392e0     msvcprtd:MSVCP140D.dll
 0006:000002e8       __imp_?xsgetn@?$basic_streambuf@DU?$char_traits@D@std@@@std@@MEAA_JPEAD_J@Z 00000001400392e8     msvcprtd:MSVCP140D.dll
 0006:000002f0       __imp_?xsputn@?$basic_streambuf@DU?$char_traits@D@std@@@std@@MEAA_JPEBD_J@Z 00000001400392f0     msvcprtd:MSVCP140D.dll
 0006:000002f8       __imp_??1?$basic_ios@DU?$char_traits@D@std@@@std@@UEAA@XZ 00000001400392f8     msvcprtd:MSVCP140D.dll
 0006:00000300       __imp_??0?$basic_ios@DU?$char_traits@D@std@@@std@@IEAA@XZ 0000000140039300     msvcprtd:MSVCP140D.dll
 0006:00000308       __imp_??0?$basic_istream@DU?$char_traits@D@std@@@std@@QEAA@PEAV?$basic_streambuf@DU?$char_traits@D@std@@@1@_N@Z 0000000140039308     msvcprtd:MSVCP140D.dll
 0006:00000310       __imp_??1?$basic_istream@DU?$char_traits@D@std@@@std@@UEAA@XZ 0000000140039310     msvcprtd:MSVCP140D.dll
 0006:00000318       __imp_??5?$basic_istream@DU?$char_traits@D@std@@@std@@QEAAAEAV01@AEAH@Z 0000000140039318     msvcprtd:MSVCP140D.dll
 0006:00000320       __imp_?_Fiopen@std@@YAPEAU_iobuf@@PEBDHH@Z 0000000140039320     msvcprtd:MSVCP140D.dll
 0006:00000328       __imp_?showmanyc@?$basic_streambuf@DU?$char_traits@D@std@@@std@@MEAA_JXZ 0000000140039328     msvcprtd:MSVCP140D.dll
 0006:00000330       __imp_?gptr@?$basic_streambuf@DU?$char_traits@D@std@@@std@@IEBAPEADXZ 0000000140039330     msvcprtd:MSVCP140D.dll
 0006:00000338       \177MSVCP140D_NULL_THUNK_DATA 0000000140039338     msvcprtd:MSVCP140D.dll
 0006:000003e8       __imp_SDL_DestroyTexture   00000001400393e8     SDL2:SDL2.dll
 0006:000003f0       __imp_SDL_RenderCopy       00000001400393f0     SDL2:SDL2.dll
 0006:000003f8       __imp_SDL_FreeSurface      00000001400393f8     SDL2:SDL2.dll
 0006:00000400       __imp_SDL_RenderCopyEx     0000000140039400     SDL2:SDL2.dll
 0006:00000408       __imp_SDL_CreateTextureFromSurface 0000000140039408     SDL2:SDL2.dll
 0006:00000410       __imp_SDL_Quit             0000000140039410     SDL2:SDL2.dll
 0006:00000418       __imp_SDL_Init             0000000140039418     SDL2:SDL2.dll
 0006:00000420       __imp_SDL_Delay            0000000140039420     SDL2:SDL2.dll
 0006:00000428       __imp_SDL_GetTicks         0000000140039428     SDL2:SDL2.dll
 0006:00000430       __imp_SDL_DestroyRenderer  0000000140039430     SDL2:SDL2.dll
 0006:00000438       __imp_SDL_RenderFillRect   0000000140039438     SDL2:SDL2.dll
 0006:00000440       __imp_SDL_CreateRenderer   0000000140039440     SDL2:SDL2.dll
 0006:00000448       __imp_SDL_PollEvent        0000000140039448     SDL2:SDL2.dll
 0006:00000450       __imp_SDL_DestroyWindow    0000000140039450     SDL2:SDL2.dll
 0006:00000458       __imp_SDL_CreateWindow     0000000140039458     SDL2:SDL2.dll
 0006:00000460       __imp_SDL_GetError         0000000140039460     SDL2:SDL2.dll
 0006:00000468       __imp_SDL_RenderPresent    0000000140039468     SDL2:SDL2.dll
 0006:00000470       __imp_SDL_RenderClear      0000000140039470     SDL2:SDL2.dll
 0006:00000478       __imp_SDL_SetRenderDrawColor 0000000140039478     SDL2:SDL2.dll
 0006:00000480       __imp_SDL_ShowSimpleMessageBox 0000000140039480     SDL2:SDL2.dll
 0006:00000488       __imp_SDL_SetMainReady     0000000140039488     SDL2:SDL2.dll
 0006:00000490       __imp_SDL_iconv_string     0000000140039490     SDL2:SDL2.dll
 0006:00000498       __imp_SDL_strlen           0000000140039498     SDL2:SDL2.dll
 0006:000004a0       __imp_SDL_wcslen           00000001400394a0     SDL2:SDL2.dll
 0006:000004a8       __imp_SDL_memcpy           00000001400394a8     SDL2:SDL2.dll
 0006:000004b0       __imp_SDL_free             00000001400394b0     SDL2:SDL2.dll
 0006:000004b8       \177SDL2_NULL_THUNK_DATA   00000001400394b8     SDL2:SDL2.dll
 0006:00000538       __imp_IMG_Quit             0000000140039538     SDL2_image:SDL2_image.dll
 0006:00000540       __imp_IMG_Load             0000000140039540     SDL2_image:SDL2_image.dll
 0006:00000548       __imp_IMG_Init             0000000140039548     SDL2_image:SDL2_image.dll
 0006:00000550       \177SDL2_image_NULL_THUNK_DATA 0000000140039550     SDL2_image:SDL2_image.dll
 0006:000005a8       __imp_TTF_Quit             00000001400395a8     SDL2_ttf:SDL2_ttf.dll
 0006:000005b0       __imp_TTF_Init             00000001400395b0     SDL2_ttf:SDL2_ttf.dll
 0006:000005b8       __imp_TTF_OpenFont         00000001400395b8     SDL2_ttf:SDL2_ttf.dll
 0006:000005c0       __imp_TTF_RenderText_Solid 00000001400395c0     SDL2_ttf:SDL2_ttf.dll
 0006:000005c8       __imp_TTF_CloseFont        00000001400395c8     SDL2_ttf:SDL2_ttf.dll
 0006:000005d0       \177SDL2_ttf_NULL_THUNK_DATA 00000001400395d0     SDL2_ttf:SDL2_ttf.dll
 0006:00000630       __imp_CommandLineToArgvW   0000000140039630     shell32:SHELL32.dll
 0006:00000638       \177SHELL32_NULL_THUNK_DATA 0000000140039638     shell32:SHELL32.dll
 0006:00000690       __imp___current_exception  0000000140039690     vcruntimed:VCRUNTIME140D.dll
 0006:00000698       __imp_memmove              0000000140039698     vcruntimed:VCRUNTIME140D.dll
 0006:000006a0       __imp___std_exception_copy 00000001400396a0     vcruntimed:VCRUNTIME140D.dll
 0006:000006a8       __imp___std_exception_destroy 00000001400396a8     vcruntimed:VCRUNTIME140D.dll
 0006:000006b0       __imp__CxxThrowException   00000001400396b0     vcruntimed:VCRUNTIME140D.dll
 0006:000006b8       __imp___C_specific_handler 00000001400396b8     vcruntimed:VCRUNTIME140D.dll
 0006:000006c0       __imp___C_specific_handler_noexcept 00000001400396c0     vcruntimed:VCRUNTIME140D.dll
 0006:000006c8       __imp___std_type_info_destroy_list 00000001400396c8     vcruntimed:VCRUNTIME140D.dll
 0006:000006d0       __imp___current_exception_context 00000001400396d0     vcruntimed:VCRUNTIME140D.dll
 0006:000006d8       __imp___vcrt_GetModuleFileNameW 00000001400396d8     vcruntimed:VCRUNTIME140D.dll
 0006:000006e0       __imp___vcrt_GetModuleHandleW 00000001400396e0     vcruntimed:VCRUNTIME140D.dll
 0006:000006e8       __imp___vcrt_LoadLibraryExW 00000001400396e8     vcruntimed:VCRUNTIME140D.dll
 0006:000006f0       __imp_memcpy               00000001400396f0     vcruntimed:VCRUNTIME140D.dll
 0006:000006f8       \177VCRUNTIME140D_NULL_THUNK_DATA 00000001400396f8     vcruntimed:VCRUNTIME140D.dll
 0006:00000760       __imp___CxxFrameHandler4   0000000140039760     vcruntimed:VCRUNTIME140_1D.dll
 0006:00000768       \177VCRUNTIME140_1D_NULL_THUNK_DATA 0000000140039768     vcruntimed:VCRUNTIME140_1D.dll
 0006:000007c0       __imp__configthreadlocale  00000001400397c0     ucrtd:ucrtbased.dll
 0006:000007c8       __imp__set_new_mode        00000001400397c8     ucrtd:ucrtbased.dll
 0006:000007d0       __imp___p__commode         00000001400397d0     ucrtd:ucrtbased.dll
 0006:000007d8       __imp__seh_filter_dll      00000001400397d8     ucrtd:ucrtbased.dll
 0006:000007e0       __imp__initialize_onexit_table 00000001400397e0     ucrtd:ucrtbased.dll
 0006:000007e8       __imp__register_onexit_function 00000001400397e8     ucrtd:ucrtbased.dll
 0006:000007f0       __imp__execute_onexit_table 00000001400397f0     ucrtd:ucrtbased.dll
 0006:000007f8       __imp__crt_atexit          00000001400397f8     ucrtd:ucrtbased.dll
 0006:00000800       __imp__crt_at_quick_exit   0000000140039800     ucrtd:ucrtbased.dll
 0006:00000808       __imp_strcpy_s             0000000140039808     ucrtd:ucrtbased.dll
 0006:00000810       __imp_strcat_s             0000000140039810     ucrtd:ucrtbased.dll
 0006:00000818       __imp___stdio_common_vsprintf_s 0000000140039818     ucrtd:ucrtbased.dll
 0006:00000820       __imp_terminate            0000000140039820     ucrtd:ucrtbased.dll
 0006:00000828       __imp__wmakepath_s         0000000140039828     ucrtd:ucrtbased.dll
 0006:00000830       __imp__wsplitpath_s        0000000140039830     ucrtd:ucrtbased.dll
 0006:00000838       __imp_wcscpy_s             0000000140039838     ucrtd:ucrtbased.dll
 0006:00000840       __imp__register_thread_local_exe_atexit_callback 0000000140039840     ucrtd:ucrtbased.dll
 0006:00000848       __imp__CrtDbgReportW       0000000140039848     ucrtd:ucrtbased.dll
 0006:00000850       __imp__c_exit              0000000140039850     ucrtd:ucrtbased.dll
 0006:00000858       __imp__callnewh            0000000140039858     ucrtd:ucrtbased.dll
 0006:00000860       __imp__malloc_dbg          0000000140039860     ucrtd:ucrtbased.dll
 0006:00000868       __imp__free_dbg            0000000140039868     ucrtd:ucrtbased.dll
 0006:00000870       __imp__unlock_file         0000000140039870     ucrtd:ucrtbased.dll
 0006:00000878       __imp__lock_file           0000000140039878     ucrtd:ucrtbased.dll
 0006:00000880       __imp_ungetc               0000000140039880     ucrtd:ucrtbased.dll
 0006:00000888       __imp_setvbuf              0000000140039888     ucrtd:ucrtbased.dll
 0006:00000890       __imp_fwrite               0000000140039890     ucrtd:ucrtbased.dll
 0006:00000898       __imp__fseeki64            0000000140039898     ucrtd:ucrtbased.dll
 0006:000008a0       __imp_fsetpos              00000001400398a0     ucrtd:ucrtbased.dll
 0006:000008a8       __imp_fread                00000001400398a8     ucrtd:ucrtbased.dll
 0006:000008b0       __imp_fputc                00000001400398b0     ucrtd:ucrtbased.dll
 0006:000008b8       __imp_fgetpos              00000001400398b8     ucrtd:ucrtbased.dll
 0006:000008c0       __imp_fgetc                00000001400398c0     ucrtd:ucrtbased.dll
 0006:000008c8       __imp_fflush               00000001400398c8     ucrtd:ucrtbased.dll
 0006:000008d0       __imp_fclose               00000001400398d0     ucrtd:ucrtbased.dll
 0006:000008d8       __imp__get_stream_buffer_pointers 00000001400398d8     ucrtd:ucrtbased.dll
 0006:000008e0       __imp__CrtDbgReport        00000001400398e0     ucrtd:ucrtbased.dll
 0006:000008e8       __imp__invalid_parameter   00000001400398e8     ucrtd:ucrtbased.dll
 0006:000008f0       __imp_strlen               00000001400398f0     ucrtd:ucrtbased.dll
 0006:000008f8       __imp___p___argv           00000001400398f8     ucrtd:ucrtbased.dll
 0006:00000900       __imp__cexit               0000000140039900     ucrtd:ucrtbased.dll
 0006:00000908       __imp___p___argc           0000000140039908     ucrtd:ucrtbased.dll
 0006:00000910       __imp__set_fmode           0000000140039910     ucrtd:ucrtbased.dll
 0006:00000918       __imp__exit                0000000140039918     ucrtd:ucrtbased.dll
 0006:00000920       __imp_exit                 0000000140039920     ucrtd:ucrtbased.dll
 0006:00000928       __imp__initterm_e          0000000140039928     ucrtd:ucrtbased.dll
 0006:00000930       __imp__initterm            0000000140039930     ucrtd:ucrtbased.dll
 0006:00000938       __imp__get_initial_narrow_environment 0000000140039938     ucrtd:ucrtbased.dll
 0006:00000940       __imp__initialize_narrow_environment 0000000140039940     ucrtd:ucrtbased.dll
 0006:00000948       __imp__configure_narrow_argv 0000000140039948     ucrtd:ucrtbased.dll
 0006:00000950       __imp___setusermatherr     0000000140039950     ucrtd:ucrtbased.dll
 0006:00000958       __imp__set_app_type        0000000140039958     ucrtd:ucrtbased.dll
 0006:00000960       __imp_malloc               0000000140039960     ucrtd:ucrtbased.dll
 0006:00000968       __imp__seh_filter_exe      0000000140039968     ucrtd:ucrtbased.dll
 0006:00000970       \177ucrtbased_NULL_THUNK_DATA 0000000140039970     ucrtd:ucrtbased.dll
 0006:00000a18       __IMPORT_DESCRIPTOR_SDL2_image 0000000140039a18     SDL2_image:SDL2_image.dll
 0006:00000a2c       __IMPORT_DESCRIPTOR_SDL2_ttf 0000000140039a2c     SDL2_ttf:SDL2_ttf.dll
 0006:00000a40       __IMPORT_DESCRIPTOR_SDL2   0000000140039a40     SDL2:SDL2.dll
 0006:00000a54       __IMPORT_DESCRIPTOR_MSVCP140D 0000000140039a54     msvcprtd:MSVCP140D.dll
 0006:00000a68       __IMPORT_DESCRIPTOR_VCRUNTIME140_1D 0000000140039a68     vcruntimed:VCRUNTIME140_1D.dll
 0006:00000a7c       __IMPORT_DESCRIPTOR_VCRUNTIME140D 0000000140039a7c     vcruntimed:VCRUNTIME140D.dll
 0006:00000a90       __IMPORT_DESCRIPTOR_ucrtbased 0000000140039a90     ucrtd:ucrtbased.dll
 0006:00000aa4       __IMPORT_DESCRIPTOR_KERNEL32 0000000140039aa4     kernel32:KERNEL32.dll
 0006:00000ab8       __IMPORT_DESCRIPTOR_SHELL32 0000000140039ab8     shell32:SHELL32.dll
 0006:00000acc       __NULL_IMPORT_DESCRIPTOR   0000000140039acc     SDL2_image:SDL2_image.dll
 0008:00000000       __guard_check_icall_fptr   000000014003e000     MSVCRTD:guard_support.obj
 0008:00000010       __guard_xfg_check_icall_fptr 000000014003e010     MSVCRTD:guard_support.obj
 0008:00000020       __guard_dispatch_icall_fptr 000000014003e020     MSVCRTD:guard_support.obj
 0008:00000030       __guard_xfg_dispatch_icall_fptr 000000014003e030     MSVCRTD:guard_support.obj
 0008:00000040       __guard_xfg_table_dispatch_icall_fptr 000000014003e040     MSVCRTD:guard_support.obj
 0008:00000050       __castguard_check_failure_os_handled_fptr 000000014003e050     MSVCRTD:guard_support.obj
 0008:00000060       __guard_memcpy_fptr        000000014003e060     vcruntimed:softmemtag.obj

 entry point at        0002:000007a8

 Static symbols

 0000:00000000       _volmd                     0000000140000000     Endscreen.obj
 0000:00000000       _volmd                     0000000140000000     Endscreen.obj
 0000:00000000       _volmd                     0000000140000000     Endscreen.obj
 0000:00000000       _volmd                     0000000140000000     Endscreen.obj
 0000:00000000       _volmd                     0000000140000000     Endscreen.obj
 0000:00000000       _volmd                     0000000140000000     Endscreen.obj
 0003:fffd4000       $cppxdata$??$?6U?$char_traits@D@std@@@std@@YAAEAV?$basic_ostream@DU?$char_traits@D@std@@@0@AEAV10@PEBD@Z 0000000140000000     Game.obj
 0003:fffd4000       $cppxdata$??0sentry@?$basic_ostream@DU?$char_traits@D@std@@@std@@QEAA@AEAV12@@Z 0000000140000000     Game.obj
 0003:fffd4000       $cppxdata$??1_Sentry_base@?$basic_ostream@DU?$char_traits@D@std@@@std@@QEAA@XZ 0000000140000000     Game.obj
 0003:fffd4000       $handlerMap$??$?6U?$char_traits@D@std@@@std@@YAAEAV?$basic_ostream@DU?$char_traits@D@std@@@0@AEAV10@PEBD@Z 0000000140000000     Game.obj
 0003:fffd4000       $ip2state$??$?6U?$char_traits@D@std@@@std@@YAAEAV?$basic_ostream@DU?$char_traits@D@std@@@0@AEAV10@PEBD@Z 0000000140000000     Game.obj
 0003:fffd4000       $ip2state$??0sentry@?$basic_ostream@DU?$char_traits@D@std@@@std@@QEAA@AEAV12@@Z 0000000140000000     Game.obj
 0003:fffd4000       $ip2state$??1_Sentry_base@?$basic_ostream@DU?$char_traits@D@std@@@std@@QEAA@XZ 0000000140000000     Game.obj
 0003:fffd4000       $stateUnwindMap$??$?6U?$char_traits@D@std@@@std@@YAAEAV?$basic_ostream@DU?$char_traits@D@std@@@0@AEAV10@PEBD@Z 0000000140000000     Game.obj
 0003:fffd4000       $stateUnwindMap$??0sentry@?$basic_ostream@DU?$char_traits@D@std@@@std@@QEAA@AEAV12@@Z 0000000140000000     Game.obj
 0003:fffd4000       $tryMap$??$?6U?$char_traits@D@std@@@std@@YAAEAV?$basic_ostream@DU?$char_traits@D@std@@@0@AEAV10@PEBD@Z 0000000140000000     Game.obj
 0003:fffd4000       $unwind$??$?6U?$char_traits@D@std@@@std@@YAAEAV?$basic_ostream@DU?$char_traits@D@std@@@0@AEAV10@PEBD@Z 0000000140000000     Game.obj
 0003:fffd4000       $unwind$??0_Sentry_base@?$basic_ostream@DU?$char_traits@D@std@@@std@@QEAA@AEAV12@@Z 0000000140000000     Game.obj
 0003:fffd4000       $unwind$??0sentry@?$basic_ostream@DU?$char_traits@D@std@@@std@@QEAA@AEAV12@@Z 0000000140000000     Game.obj
 0003:fffd4000       $unwind$??1_Sentry_base@?$basic_ostream@DU?$char_traits@D@std@@@std@@QEAA@XZ 0000000140000000     Game.obj
 0003:fffd4000       $unwind$??1sentry@?$basic_ostream@DU?$char_traits@D@std@@@std@@QEAA@XZ 0000000140000000     Game.obj
 0003:fffd4000       $unwind$??Bsentry@?$basic_ostream@DU?$char_traits@D@std@@@std@@QEBA_NXZ 0000000140000000     Game.obj
 0003:fffd4000       $unwind$?__autoclassinit2@UI@@QEAAX_K@Z 0000000140000000     Game.obj
 0003:fffd4000       $unwind$?__empty_global_delete@@YAXPEAX@Z 0000000140000000     Game.obj
 0003:fffd4000       $unwind$?__empty_global_delete@@YAXPEAX_K@Z 0000000140000000     Game.obj
 0003:fffd4000       $unwind$?catch$1@?0???$?6U?$char_traits@D@std@@@std@@YAAEAV?$basic_ostream@DU?$char_traits@D@std@@@0@AEAV10@PEBD@Z@4HA 0000000140000000     Game.obj
 0003:fffd4000       $unwind$?dtor$0@?0???$?6U?$char_traits@D@std@@@std@@YAAEAV?$basic_ostream@DU?$char_traits@D@std@@@0@AEAV10@PEBD@Z@4HA 0000000140000000     Game.obj
 0003:fffd4000       $unwind$?dtor$0@?0???0sentry@?$basic_ostream@DU?$char_traits@D@std@@@std@@QEAA@AEAV12@@Z@4HA 0000000140000000     Game.obj
 0003:fffd4000       $unwind$?eof@?$_Narrow_char_traits@DH@std@@SAHXZ 0000000140000000     Game.obj
 0003:fffd4000       $unwind$?eq_int_type@?$_Narrow_char_traits@DH@std@@SA_NAEBH0@Z 0000000140000000     Game.obj
 0003:fffd4000       $unwind$?length@?$_Narrow_char_traits@DH@std@@SA_KQEBD@Z 0000000140000000     Game.obj
 0003:fffd4000       ??$?6U?$char_traits@D@std@@@std@@YAAEAV?$basic_ostream@DU?$char_traits@D@std@@@0@AEAV10@PEBD@Z$rtcName$0 0000000140000000     Game.obj
 0002:fffef000       ?catch$1@?0???$?6U?$char_traits@D@std@@@std@@YAAEAV?$basic_ostream@DU?$char_traits@D@std@@@0@AEAV10@PEBD@Z@4HA 0000000140000000 f   Game.obj
 0002:fffef000       ?dtor$0@?0???$?6U?$char_traits@D@std@@@std@@YAAEAV?$basic_ostream@DU?$char_traits@D@std@@@0@AEAV10@PEBD@Z@4HA 0000000140000000 f   Game.obj
 0002:fffef000       ?dtor$0@?0???0sentry@?$basic_ostream@DU?$char_traits@D@std@@@std@@QEAA@AEAV12@@Z@4HA 0000000140000000 f   Game.obj
 0000:00000000       _volmd                     0000000140000000     Game.obj
 0000:00000000       _volmd                     0000000140000000     Game.obj
 0000:00000000       _volmd                     0000000140000000     Game.obj
 0000:00000000       _volmd                     0000000140000000     Game.obj
 0000:00000000       _volmd                     0000000140000000     Game.obj
 0000:00000000       _volmd                     0000000140000000     Game.obj
 0000:00000000       _volmd                     0000000140000000     Game.obj
 0000:00000000       _volmd                     0000000140000000     Game.obj
 0000:00000000       _volmd                     0000000140000000     Game.obj
 0000:00000000       _volmd                     0000000140000000     Game.obj
 0000:00000000       _volmd                     0000000140000000     Game.obj
 0000:00000000       _volmd                     0000000140000000     Game.obj
 0000:00000000       _volmd                     0000000140000000     Game.obj
 0000:00000000       _volmd                     0000000140000000     Game.obj
 0000:00000000       _volmd                     0000000140000000     Game.obj
 0000:00000000       _volmd                     0000000140000000     Game.obj
 0000:00000000       _volmd                     0000000140000000     Game.obj
 0000:00000000       _volmd                     0000000140000000     Game.obj
 0000:00000000       _volmd                     0000000140000000     Game.obj
 0000:00000000       _volmd                     0000000140000000     Game.obj
 0000:00000000       _volmd                     0000000140000000     Game.obj
 0000:00000000       _volmd                     0000000140000000     Game.obj
 0003:fffd4000       $cppxdata$??$_Deallocate@$0BA@$0A@@std@@YAXPEAX_K@Z 0000000140000000     Gameworld.obj
 0003:fffd4000       $cppxdata$??$_Deallocate_plain@V?$allocator@U_Container_proxy@std@@@std@@@std@@YAXAEAV?$allocator@U_Container_proxy@std@@@0@QEAU_Container_proxy@0@@Z 0000000140000000     Gameworld.obj
 0003:fffd4000       $ip2state$??$_Deallocate@$0BA@$0A@@std@@YAXPEAX_K@Z 0000000140000000     Gameworld.obj
 0003:fffd4000       $ip2state$??$_Deallocate_plain@V?$allocator@U_Container_proxy@std@@@std@@@std@@YAXAEAV?$allocator@U_Container_proxy@std@@@0@QEAU_Container_proxy@0@@Z 0000000140000000     Gameworld.obj
 0003:fffd4000       $unwind$??$?0D@?$allocator@U_Container_proxy@std@@@std@@QEAA@AEBV?$allocator@D@1@@Z 0000000140000000     Gameworld.obj
 0003:fffd4000       $unwind$??$_Alloc_proxy@V?$allocator@U_Container_proxy@std@@@std@@@_Container_base12@std@@QEAAX$$QEAV?$allocator@U_Container_proxy@std@@@1@@Z 0000000140000000     Gameworld.obj
 0003:fffd4000       $unwind$??$_Allocate@$0BA@U_Default_allocate_traits@std@@$0A@@std@@YAPEAX_K@Z 0000000140000000     Gameworld.obj
 0003:fffd4000       $unwind$??$_Allocate_manually_vector_aligned@U_Default_allocate_traits@std@@@std@@YAPEAX_K@Z 0000000140000000     Gameworld.obj
 0003:fffd4000       $unwind$??$_Construct_in_place@PEADAEBQEAD@std@@YAXAEAPEADAEBQEAD@Z 0000000140000000     Gameworld.obj
 0003:fffd4000       $unwind$??$_Construct_in_place@U_Container_proxy@std@@PEAU_Container_base12@2@@std@@YAXAEAU_Container_proxy@0@$$QEAPEAU_Container_base12@0@@Z 0000000140000000     Gameworld.obj
 0003:fffd4000       $unwind$??$_Convert_size@_K_K@std@@YA_K_K@Z 0000000140000000     Gameworld.obj
 0003:fffd4000       $unwind$??$_Deallocate@$0BA@$0A@@std@@YAXPEAX_K@Z 0000000140000000     Gameworld.obj
 0003:fffd4000       $unwind$??$_Deallocate_plain@V?$allocator@U_Container_proxy@std@@@std@@@std@@YAXAEAV?$allocator@U_Container_proxy@std@@@0@QEAU_Container_proxy@0@@Z 0000000140000000     Gameworld.obj
 0003:fffd4000       $unwind$??$_Delete_plain_internal@V?$allocator@U_Container_proxy@std@@@std@@@std@@YAXAEAV?$allocator@U_Container_proxy@std@@@0@QEAU_Container_proxy@0@@Z 0000000140000000     Gameworld.obj
 0003:fffd4000       $unwind$??$_Get_size_of_n@$00@std@@YA_K_K@Z 0000000140000000     Gameworld.obj
 0003:fffd4000       $unwind$??$_Get_size_of_n@$0BA@@std@@YA_K_K@Z 0000000140000000     Gameworld.obj
 0003:fffd4000       $unwind$??$_Unfancy@D@std@@YAPEADPEAD@Z 0000000140000000     Gameworld.obj
 0003:fffd4000       $unwind$??$_Unfancy@U_Container_proxy@std@@@std@@YAPEAU_Container_proxy@0@PEAU10@@Z 0000000140000000     Gameworld.obj
 0003:fffd4000       $unwind$??$addressof@PEAD@std@@YAPEAPEADAEAPEAD@Z 0000000140000000     Gameworld.obj
 0003:fffd4000       $unwind$??$addressof@U_Container_base12@std@@@std@@YAPEAU_Container_base12@0@AEAU10@@Z 0000000140000000     Gameworld.obj
 0003:fffd4000       $unwind$??$addressof@U_Container_proxy@std@@@std@@YAPEAU_Container_proxy@0@AEAU10@@Z 0000000140000000     Gameworld.obj
 0003:fffd4000       $unwind$??$max@_K@std@@YAAEB_KAEB_K0@Z 0000000140000000     Gameworld.obj
 0003:fffd4000       $unwind$??$min@_K@std@@YAAEB_KAEB_K0@Z 0000000140000000     Gameworld.obj
 0003:fffd4000       $unwind$??0?$_Container_proxy_ptr12@V?$allocator@U_Container_proxy@std@@@std@@@std@@QEAA@AEAV?$allocator@U_Container_proxy@std@@@1@AEAU_Container_base12@1@@Z 0000000140000000     Gameworld.obj
 0003:fffd4000       $unwind$??0?$_String_val@U?$_Simple_types@D@std@@@std@@QEAA@XZ 0000000140000000     Gameworld.obj
 0003:fffd4000       $unwind$??0?$allocator@D@std@@QEAA@XZ 0000000140000000     Gameworld.obj
 0003:fffd4000       $unwind$??0_Basic_container_proxy_ptr12@std@@IEAA@XZ 0000000140000000     Gameworld.obj
 0003:fffd4000       $unwind$??0_Bxty@?$_String_val@U?$_Simple_types@D@std@@@std@@QEAA@XZ 0000000140000000     Gameworld.obj
 0003:fffd4000       $unwind$??0_Container_base12@std@@QEAA@XZ 0000000140000000     Gameworld.obj
 0003:fffd4000       $unwind$??0_Container_proxy@std@@QEAA@PEAU_Container_base12@1@@Z 0000000140000000     Gameworld.obj
 0003:fffd4000       $unwind$??0bad_alloc@std@@AEAA@QEBD@Z 0000000140000000     Gameworld.obj
 0003:fffd4000       $unwind$??0bad_alloc@std@@QEAA@AEBV01@@Z 0000000140000000     Gameworld.obj
 0003:fffd4000       $unwind$??0bad_array_new_length@std@@QEAA@AEBV01@@Z 0000000140000000     Gameworld.obj
 0003:fffd4000       $unwind$??0bad_array_new_length@std@@QEAA@XZ 0000000140000000     Gameworld.obj
 0003:fffd4000       $unwind$??0exception@std@@QEAA@AEBV01@@Z 0000000140000000     Gameworld.obj
 0003:fffd4000       $unwind$??0exception@std@@QEAA@QEBDH@Z 0000000140000000     Gameworld.obj
 0003:fffd4000       $unwind$??1?$_Compressed_pair@V?$allocator@D@std@@V?$_String_val@U?$_Simple_types@D@std@@@2@$00@std@@QEAA@XZ 0000000140000000     Gameworld.obj
 0003:fffd4000       $unwind$??1?$_Container_proxy_ptr12@V?$allocator@U_Container_proxy@std@@@std@@@std@@QEAA@XZ 0000000140000000     Gameworld.obj
 0003:fffd4000       $unwind$??1?$_String_val@U?$_Simple_types@D@std@@@std@@QEAA@XZ 0000000140000000     Gameworld.obj
 0003:fffd4000       $unwind$??1_Bxty@?$_String_val@U?$_Simple_types@D@std@@@std@@QEAA@XZ 0000000140000000     Gameworld.obj
 0003:fffd4000       $unwind$??1bad_alloc@std@@UEAA@XZ 0000000140000000     Gameworld.obj
 0003:fffd4000       $unwind$??1bad_array_new_length@std@@UEAA@XZ 0000000140000000     Gameworld.obj
 0003:fffd4000       $unwind$??1exception@std@@UEAA@XZ 0000000140000000     Gameworld.obj
 0003:fffd4000       $unwind$??2@YAPEAX_KPEAX@Z 0000000140000000     Gameworld.obj
 0003:fffd4000       $unwind$??_Gbad_alloc@std@@UEAAPEAXI@Z 0000000140000000     Gameworld.obj
 0003:fffd4000       $unwind$??_Gbad_array_new_length@std@@UEAAPEAXI@Z 0000000140000000     Gameworld.obj
 0003:fffd4000       $unwind$??_Gexception@std@@UEAAPEAXI@Z 0000000140000000     Gameworld.obj
 0003:fffd4000       $unwind$?_Adjust_manually_vector_aligned@std@@YAXAEAPEAXAEA_K@Z 0000000140000000     Gameworld.obj
 0003:fffd4000       $unwind$?_Allocate@_Default_allocate_traits@std@@SAPEAX_K@Z 0000000140000000     Gameworld.obj
 0003:fffd4000       $unwind$?_Calculate_growth@?$basic_string@DU?$char_traits@D@std@@V?$allocator@D@2@@std@@AEBA_K_K@Z 0000000140000000     Gameworld.obj
 0003:fffd4000       $unwind$?_Calculate_growth@?$basic_string@DU?$char_traits@D@std@@V?$allocator@D@2@@std@@CA_K_K00@Z 0000000140000000     Gameworld.obj
 0003:fffd4000       $unwind$?_Get_first@?$_Compressed_pair@V?$allocator@D@std@@V?$_String_val@U?$_Simple_types@D@std@@@2@$00@std@@QEAAAEAV?$allocator@D@2@XZ 0000000140000000     Gameworld.obj
 0003:fffd4000       $unwind$?_Get_first@?$_Compressed_pair@V?$allocator@D@std@@V?$_String_val@U?$_Simple_types@D@std@@@2@$00@std@@QEBAAEBV?$allocator@D@2@XZ 0000000140000000     Gameworld.obj
 0003:fffd4000       $unwind$?_Getal@?$basic_string@DU?$char_traits@D@std@@V?$allocator@D@2@@std@@AEAAAEAV?$allocator@D@2@XZ 0000000140000000     Gameworld.obj
 0003:fffd4000       $unwind$?_Getal@?$basic_string@DU?$char_traits@D@std@@V?$allocator@D@2@@std@@AEBAAEBV?$allocator@D@2@XZ 0000000140000000     Gameworld.obj
 0003:fffd4000       $unwind$?_Release@_Basic_container_proxy_ptr12@std@@QEAAXXZ 0000000140000000     Gameworld.obj
 0003:fffd4000       $unwind$?_Start_element_lifetimes@?$basic_string@DU?$char_traits@D@std@@V?$allocator@D@2@@std@@CAXQEAD_K@Z 0000000140000000     Gameworld.obj
 0003:fffd4000       $unwind$?_Throw_bad_array_new_length@std@@YAXXZ 0000000140000000     Gameworld.obj
 0003:fffd4000       $unwind$?_Xlen_string@std@@YAXXZ 0000000140000000     Gameworld.obj
 0003:fffd4000       $unwind$?__empty_global_delete@@YAXPEAX@Z 0000000140000000     Gameworld.obj
 0003:fffd4000       $unwind$?__empty_global_delete@@YAXPEAX_K@Z 0000000140000000     Gameworld.obj
 0003:fffd4000       $unwind$?allocate@?$allocator@D@std@@QEAAPEAD_K@Z 0000000140000000     Gameworld.obj
 0003:fffd4000       $unwind$?allocate@?$allocator@U_Container_proxy@std@@@std@@QEAAPEAU_Container_proxy@2@_K@Z 0000000140000000     Gameworld.obj
 0003:fffd4000       $unwind$?assign@?$_Narrow_char_traits@DH@std@@SAXAEADAEBD@Z 0000000140000000     Gameworld.obj
 0003:fffd4000       $unwind$?copy@?$_Char_traits@DH@std@@SAPEADQEADQEBD_K@Z 0000000140000000     Gameworld.obj
 0003:fffd4000       $unwind$?deallocate@?$_Default_allocator_traits@V?$allocator@U_Container_proxy@std@@@std@@@std@@SAXAEAV?$allocator@U_Container_proxy@std@@@2@QEAU_Container_proxy@2@_K@Z 0000000140000000     Gameworld.obj
 0003:fffd4000       $unwind$?length@?$_Narrow_char_traits@DH@std@@SA_KQEBD@Z 0000000140000000     Gameworld.obj
 0003:fffd4000       $unwind$?max@?$numeric_limits@_J@std@@SA_JXZ 0000000140000000     Gameworld.obj
 0003:fffd4000       $unwind$?max_size@?$_Default_allocator_traits@V?$allocator@D@std@@@std@@SA_KAEBV?$allocator@D@2@@Z 0000000140000000     Gameworld.obj
 0003:fffd4000       $unwind$?max_size@?$basic_string@DU?$char_traits@D@std@@V?$allocator@D@2@@std@@QEBA_KXZ 0000000140000000     Gameworld.obj
 0003:fffd4000       $unwind$?what@exception@std@@UEBAPEBDXZ 0000000140000000     Gameworld.obj
 0003:fffd4000       ?_Calculate_growth@?$basic_string@DU?$char_traits@D@std@@V?$allocator@D@2@@std@@CA_K_K00@Z$rtcName$0 0000000140000000     Gameworld.obj
 0003:fffd4000       ?max_size@?$basic_string@DU?$char_traits@D@std@@V?$allocator@D@2@@std@@QEBA_KXZ$rtcName$0 0000000140000000     Gameworld.obj
 0000:00000000       _volmd                     0000000140000000     Gameworld.obj
 0000:00000000       _volmd                     0000000140000000     Gameworld.obj
 0000:00000000       _volmd                     0000000140000000     Gameworld.obj
 0000:00000000       _volmd                     0000000140000000     Gameworld.obj
 0000:00000000       _volmd                     0000000140000000     Gameworld.obj
 0003:fffd4000       $cppxdata$??$_Deallocate@$0BA@$0A@@std@@YAXPEAX_K@Z 0000000140000000     Obj.obj
 0003:fffd4000       $cppxdata$??$_Deallocate_plain@V?$allocator@U_Container_proxy@std@@@std@@@std@@YAXAEAV?$allocator@U_Container_proxy@std@@@0@QEAU_Container_proxy@0@@Z 0000000140000000     Obj.obj
 0003:fffd4000       $cppxdata$?_Tidy_deallocate@?$basic_string@DU?$char_traits@D@std@@V?$allocator@D@2@@std@@AEAAXXZ 0000000140000000     Obj.obj
 0003:fffd4000       $ip2state$??$_Deallocate@$0BA@$0A@@std@@YAXPEAX_K@Z 0000000140000000     Obj.obj
 0003:fffd4000       $ip2state$??$_Deallocate_plain@V?$allocator@U_Container_proxy@std@@@std@@@std@@YAXAEAV?$allocator@U_Container_proxy@std@@@0@QEAU_Container_proxy@0@@Z 0000000140000000     Obj.obj
 0003:fffd4000       $ip2state$?_Tidy_deallocate@?$basic_string@DU?$char_traits@D@std@@V?$allocator@D@2@@std@@AEAAXXZ 0000000140000000     Obj.obj
 0003:fffd4000       $unwind$??$?0D@?$allocator@U_Container_proxy@std@@@std@@QEAA@AEBV?$allocator@D@1@@Z 0000000140000000     Obj.obj
 0003:fffd4000       $unwind$??$_Deallocate@$0BA@$0A@@std@@YAXPEAX_K@Z 0000000140000000     Obj.obj
 0003:fffd4000       $unwind$??$_Deallocate_plain@V?$allocator@U_Container_proxy@std@@@std@@@std@@YAXAEAV?$allocator@U_Container_proxy@std@@@0@QEAU_Container_proxy@0@@Z 0000000140000000     Obj.obj
 0003:fffd4000       $unwind$??$_Delete_plain_internal@V?$allocator@U_Container_proxy@std@@@std@@@std@@YAXAEAV?$allocator@U_Container_proxy@std@@@0@QEAU_Container_proxy@0@@Z 0000000140000000     Obj.obj
 0003:fffd4000       $unwind$??$_Destroy_in_place@PEAD@std@@YAXAEAPEAD@Z 0000000140000000     Obj.obj
 0003:fffd4000       $unwind$??$_Unfancy@D@std@@YAPEADPEAD@Z 0000000140000000     Obj.obj
 0003:fffd4000       $unwind$??$exchange@PEAU_Iterator_base12@std@@$$T@std@@YAPEAU_Iterator_base12@0@AEAPEAU10@$$QEA$$T@Z 0000000140000000     Obj.obj
 0003:fffd4000       $unwind$??1?$_Compressed_pair@V?$allocator@D@std@@V?$_String_val@U?$_Simple_types@D@std@@@2@$00@std@@QEAA@XZ 0000000140000000     Obj.obj
 0003:fffd4000       $unwind$??1?$_String_val@U?$_Simple_types@D@std@@@std@@QEAA@XZ 0000000140000000     Obj.obj
 0003:fffd4000       $unwind$??1?$basic_string@DU?$char_traits@D@std@@V?$allocator@D@2@@std@@QEAA@XZ 0000000140000000     Obj.obj
 0003:fffd4000       $unwind$??1_Bxty@?$_String_val@U?$_Simple_types@D@std@@@std@@QEAA@XZ 0000000140000000     Obj.obj
 0003:fffd4000       $unwind$?_Activate_SSO_buffer@?$_String_val@U?$_Simple_types@D@std@@@std@@QEAAXXZ 0000000140000000     Obj.obj
 0003:fffd4000       $unwind$?_Adjust_manually_vector_aligned@std@@YAXAEAPEAXAEA_K@Z 0000000140000000     Obj.obj
 0003:fffd4000       $unwind$?_Get_first@?$_Compressed_pair@V?$allocator@D@std@@V?$_String_val@U?$_Simple_types@D@std@@@2@$00@std@@QEAAAEAV?$allocator@D@2@XZ 0000000140000000     Obj.obj
 0003:fffd4000       $unwind$?_Getal@?$basic_string@DU?$char_traits@D@std@@V?$allocator@D@2@@std@@AEAAAEAV?$allocator@D@2@XZ 0000000140000000     Obj.obj
 0003:fffd4000       $unwind$?_Large_string_engaged@?$_String_val@U?$_Simple_types@D@std@@@std@@QEBA_NXZ 0000000140000000     Obj.obj
 0003:fffd4000       $unwind$?_Myptr@?$_String_val@U?$_Simple_types@D@std@@@std@@QEBAPEBDXZ 0000000140000000     Obj.obj
 0003:fffd4000       $unwind$?_Orphan_all@_Container_base12@std@@QEAAXXZ 0000000140000000     Obj.obj
 0003:fffd4000       $unwind$?_Orphan_all_locked_v3@_Container_base12@std@@AEAAXXZ 0000000140000000     Obj.obj
 0003:fffd4000       $unwind$?_Orphan_all_unlocked_v3@_Container_base12@std@@AEAAXXZ 0000000140000000     Obj.obj
 0003:fffd4000       $unwind$?_Tidy_deallocate@?$basic_string@DU?$char_traits@D@std@@V?$allocator@D@2@@std@@AEAAXXZ 0000000140000000     Obj.obj
 0003:fffd4000       $unwind$?__empty_global_delete@@YAXPEAX@Z 0000000140000000     Obj.obj
 0003:fffd4000       $unwind$?__empty_global_delete@@YAXPEAX_K@Z 0000000140000000     Obj.obj
 0003:fffd4000       $unwind$?assign@?$_Narrow_char_traits@DH@std@@SAXAEADAEBD@Z 0000000140000000     Obj.obj
 0003:fffd4000       $unwind$?c_str@?$basic_string@DU?$char_traits@D@std@@V?$allocator@D@2@@std@@QEBAPEBDXZ 0000000140000000     Obj.obj
 0003:fffd4000       $unwind$?deallocate@?$_Default_allocator_traits@V?$allocator@U_Container_proxy@std@@@std@@@std@@SAXAEAV?$allocator@U_Container_proxy@std@@@2@QEAU_Container_proxy@2@_K@Z 0000000140000000     Obj.obj
 0003:fffd4000       $unwind$?deallocate@?$allocator@D@std@@QEAAXQEAD_K@Z 0000000140000000     Obj.obj
 0003:fffd4000       ??1?$basic_string@DU?$char_traits@D@std@@V?$allocator@D@2@@std@@QEAA@XZ$rtcName$0 0000000140000000     Obj.obj
 0003:fffd4000       ?_Orphan_all_locked_v3@_Container_base12@std@@AEAAXXZ$rtcName$0 0000000140000000     Obj.obj
 0000:00000000       _volmd                     0000000140000000     Obj.obj
 0000:00000000       _volmd                     0000000140000000     Obj.obj
 0000:00000000       _volmd                     0000000140000000     Obj.obj
 0003:fffd4000       $cppxdata$??$?6U?$char_traits@D@std@@@std@@YAAEAV?$basic_ostream@DU?$char_traits@D@std@@@0@AEAV10@PEBD@Z 0000000140000000     Splashscreen.obj
 0003:fffd4000       $cppxdata$??0sentry@?$basic_ostream@DU?$char_traits@D@std@@@std@@QEAA@AEAV12@@Z 0000000140000000     Splashscreen.obj
 0003:fffd4000       $cppxdata$??1_Sentry_base@?$basic_ostream@DU?$char_traits@D@std@@@std@@QEAA@XZ 0000000140000000     Splashscreen.obj
 0003:fffd4000       $handlerMap$??$?6U?$char_traits@D@std@@@std@@YAAEAV?$basic_ostream@DU?$char_traits@D@std@@@0@AEAV10@PEBD@Z 0000000140000000     Splashscreen.obj
 0003:fffd4000       $ip2state$??$?6U?$char_traits@D@std@@@std@@YAAEAV?$basic_ostream@DU?$char_traits@D@std@@@0@AEAV10@PEBD@Z 0000000140000000     Splashscreen.obj
 0003:fffd4000       $ip2state$??0sentry@?$basic_ostream@DU?$char_traits@D@std@@@std@@QEAA@AEAV12@@Z 0000000140000000     Splashscreen.obj
 0003:fffd4000       $ip2state$??1_Sentry_base@?$basic_ostream@DU?$char_traits@D@std@@@std@@QEAA@XZ 0000000140000000     Splashscreen.obj
 0003:fffd4000       $stateUnwindMap$??$?6U?$char_traits@D@std@@@std@@YAAEAV?$basic_ostream@DU?$char_traits@D@std@@@0@AEAV10@PEBD@Z 0000000140000000     Splashscreen.obj
 0003:fffd4000       $stateUnwindMap$??0sentry@?$basic_ostream@DU?$char_traits@D@std@@@std@@QEAA@AEAV12@@Z 0000000140000000     Splashscreen.obj
 0003:fffd4000       $tryMap$??$?6U?$char_traits@D@std@@@std@@YAAEAV?$basic_ostream@DU?$char_traits@D@std@@@0@AEAV10@PEBD@Z 0000000140000000     Splashscreen.obj
 0003:fffd4000       $unwind$??$?6U?$char_traits@D@std@@@std@@YAAEAV?$basic_ostream@DU?$char_traits@D@std@@@0@AEAV10@PEBD@Z 0000000140000000     Splashscreen.obj
 0003:fffd4000       $unwind$??0_Sentry_base@?$basic_ostream@DU?$char_traits@D@std@@@std@@QEAA@AEAV12@@Z 0000000140000000     Splashscreen.obj
 0003:fffd4000       $unwind$??0sentry@?$basic_ostream@DU?$char_traits@D@std@@@std@@QEAA@AEAV12@@Z 0000000140000000     Splashscreen.obj
 0003:fffd4000       $unwind$??1_Sentry_base@?$basic_ostream@DU?$char_traits@D@std@@@std@@QEAA@XZ 0000000140000000     Splashscreen.obj
 0003:fffd4000       $unwind$??1sentry@?$basic_ostream@DU?$char_traits@D@std@@@std@@QEAA@XZ 0000000140000000     Splashscreen.obj
 0003:fffd4000       $unwind$??Bsentry@?$basic_ostream@DU?$char_traits@D@std@@@std@@QEBA_NXZ 0000000140000000     Splashscreen.obj
 0003:fffd4000       $unwind$?__autoclassinit2@UI@@QEAAX_K@Z 0000000140000000     Splashscreen.obj
 0003:fffd4000       $unwind$?__empty_global_delete@@YAXPEAX@Z 0000000140000000     Splashscreen.obj
 0003:fffd4000       $unwind$?__empty_global_delete@@YAXPEAX_K@Z 0000000140000000     Splashscreen.obj
 0003:fffd4000       $unwind$?catch$1@?0???$?6U?$char_traits@D@std@@@std@@YAAEAV?$basic_ostream@DU?$char_traits@D@std@@@0@AEAV10@PEBD@Z@4HA 0000000140000000     Splashscreen.obj
 0003:fffd4000       $unwind$?dtor$0@?0???$?6U?$char_traits@D@std@@@std@@YAAEAV?$basic_ostream@DU?$char_traits@D@std@@@0@AEAV10@PEBD@Z@4HA 0000000140000000     Splashscreen.obj
 0003:fffd4000       $unwind$?dtor$0@?0???0sentry@?$basic_ostream@DU?$char_traits@D@std@@@std@@QEAA@AEAV12@@Z@4HA 0000000140000000     Splashscreen.obj
 0003:fffd4000       $unwind$?eof@?$_Narrow_char_traits@DH@std@@SAHXZ 0000000140000000     Splashscreen.obj
 0003:fffd4000       $unwind$?eq_int_type@?$_Narrow_char_traits@DH@std@@SA_NAEBH0@Z 0000000140000000     Splashscreen.obj
 0003:fffd4000       $unwind$?length@?$_Narrow_char_traits@DH@std@@SA_KQEBD@Z 0000000140000000     Splashscreen.obj
 0003:fffd4000       ??$?6U?$char_traits@D@std@@@std@@YAAEAV?$basic_ostream@DU?$char_traits@D@std@@@0@AEAV10@PEBD@Z$rtcName$0 0000000140000000     Splashscreen.obj
 0002:fffef000       ?catch$1@?0???$?6U?$char_traits@D@std@@@std@@YAAEAV?$basic_ostream@DU?$char_traits@D@std@@@0@AEAV10@PEBD@Z@4HA 0000000140000000 f   Splashscreen.obj
 0002:fffef000       ?dtor$0@?0???$?6U?$char_traits@D@std@@@std@@YAAEAV?$basic_ostream@DU?$char_traits@D@std@@@0@AEAV10@PEBD@Z@4HA 0000000140000000 f   Splashscreen.obj
 0002:fffef000       ?dtor$0@?0???0sentry@?$basic_ostream@DU?$char_traits@D@std@@@std@@QEAA@AEAV12@@Z@4HA 0000000140000000 f   Splashscreen.obj
 0000:00000000       _volmd                     0000000140000000     Splashscreen.obj
 0000:00000000       _volmd                     0000000140000000     Splashscreen.obj
 0000:00000000       _volmd                     0000000140000000     Splashscreen.obj
 0000:00000000       _volmd                     0000000140000000     Splashscreen.obj
 0000:00000000       _volmd                     0000000140000000     Splashscreen.obj
 0000:00000000       _volmd                     0000000140000000     Splashscreen.obj
 0000:00000000       _volmd                     0000000140000000     Splashscreen.obj
 0000:00000000       _volmd                     0000000140000000     Splashscreen.obj
 0000:00000000       _volmd                     0000000140000000     Splashscreen.obj
 0003:fffd4000       $cppxdata$??$?6U?$char_traits@D@std@@@std@@YAAEAV?$basic_ostream@DU?$char_traits@D@std@@@0@AEAV10@PEBD@Z 0000000140000000     Tilemap.obj
 0003:fffd4000       $cppxdata$??$_Construct@$00PEBD@?$basic_string@DU?$char_traits@D@std@@V?$allocator@D@2@@std@@AEAAXQEBD_K@Z 0000000140000000     Tilemap.obj
 0003:fffd4000       $cppxdata$??$_Deallocate@$0BA@$0A@@std@@YAXPEAX_K@Z 0000000140000000     Tilemap.obj
 0003:fffd4000       $cppxdata$??$_Deallocate_plain@V?$allocator@U_Container_proxy@std@@@std@@@std@@YAXAEAV?$allocator@U_Container_proxy@std@@@0@QEAU_Container_proxy@0@@Z 0000000140000000     Tilemap.obj
 0003:fffd4000       $cppxdata$??0?$basic_string@DU?$char_traits@D@std@@V?$allocator@D@2@@std@@QEAA@QEBD@Z 0000000140000000     Tilemap.obj
 0003:fffd4000       $cppxdata$??0sentry@?$basic_ostream@DU?$char_traits@D@std@@@std@@QEAA@AEAV12@@Z 0000000140000000     Tilemap.obj
 0003:fffd4000       $cppxdata$??1_Sentry_base@?$basic_ostream@DU?$char_traits@D@std@@@std@@QEAA@XZ 0000000140000000     Tilemap.obj
 0003:fffd4000       $cppxdata$?_Tidy_deallocate@?$basic_string@DU?$char_traits@D@std@@V?$allocator@D@2@@std@@AEAAXXZ 0000000140000000     Tilemap.obj
 0003:fffd4000       $handlerMap$??$?6U?$char_traits@D@std@@@std@@YAAEAV?$basic_ostream@DU?$char_traits@D@std@@@0@AEAV10@PEBD@Z 0000000140000000     Tilemap.obj
 0003:fffd4000       $ip2state$??$?6U?$char_traits@D@std@@@std@@YAAEAV?$basic_ostream@DU?$char_traits@D@std@@@0@AEAV10@PEBD@Z 0000000140000000     Tilemap.obj
 0003:fffd4000       $ip2state$??$_Construct@$00PEBD@?$basic_string@DU?$char_traits@D@std@@V?$allocator@D@2@@std@@AEAAXQEBD_K@Z 0000000140000000     Tilemap.obj
 0003:fffd4000       $ip2state$??$_Deallocate@$0BA@$0A@@std@@YAXPEAX_K@Z 0000000140000000     Tilemap.obj
 0003:fffd4000       $ip2state$??$_Deallocate_plain@V?$allocator@U_Container_proxy@std@@@std@@@std@@YAXAEAV?$allocator@U_Container_proxy@std@@@0@QEAU_Container_proxy@0@@Z 0000000140000000     Tilemap.obj
 0003:fffd4000       $ip2state$??0?$basic_string@DU?$char_traits@D@std@@V?$allocator@D@2@@std@@QEAA@QEBD@Z 0000000140000000     Tilemap.obj
 0003:fffd4000       $ip2state$??0sentry@?$basic_ostream@DU?$char_traits@D@std@@@std@@QEAA@AEAV12@@Z 0000000140000000     Tilemap.obj
 0003:fffd4000       $ip2state$??1_Sentry_base@?$basic_ostream@DU?$char_traits@D@std@@@std@@QEAA@XZ 0000000140000000     Tilemap.obj
 0003:fffd4000       $ip2state$?_Tidy_deallocate@?$basic_string@DU?$char_traits@D@std@@V?$allocator@D@2@@std@@AEAAXXZ 0000000140000000     Tilemap.obj
 0003:fffd4000       $stateUnwindMap$??$?6U?$char_traits@D@std@@@std@@YAAEAV?$basic_ostream@DU?$char_traits@D@std@@@0@AEAV10@PEBD@Z 0000000140000000     Tilemap.obj
 0003:fffd4000       $stateUnwindMap$??$_Construct@$00PEBD@?$basic_string@DU?$char_traits@D@std@@V?$allocator@D@2@@std@@AEAAXQEBD_K@Z 0000000140000000     Tilemap.obj
 0003:fffd4000       $stateUnwindMap$??0?$basic_string@DU?$char_traits@D@std@@V?$allocator@D@2@@std@@QEAA@QEBD@Z 0000000140000000     Tilemap.obj
 0003:fffd4000       $stateUnwindMap$??0sentry@?$basic_ostream@DU?$char_traits@D@std@@@std@@QEAA@AEAV12@@Z 0000000140000000     Tilemap.obj
 0003:fffd4000       $tryMap$??$?6U?$char_traits@D@std@@@std@@YAAEAV?$basic_ostream@DU?$char_traits@D@std@@@0@AEAV10@PEBD@Z 0000000140000000     Tilemap.obj
 0003:fffd4000       $unwind$??$?0$$V@?$_Compressed_pair@V?$allocator@D@std@@V?$_String_val@U?$_Simple_types@D@std@@@2@$00@std@@QEAA@U_Zero_then_variadic_args_t@1@@Z 0000000140000000     Tilemap.obj
 0003:fffd4000       $unwind$??$?0D@?$allocator@U_Container_proxy@std@@@std@@QEAA@AEBV?$allocator@D@1@@Z 0000000140000000     Tilemap.obj
 0003:fffd4000       $unwind$??$?6U?$char_traits@D@std@@@std@@YAAEAV?$basic_ostream@DU?$char_traits@D@std@@@0@AEAV10@PEBD@Z 0000000140000000     Tilemap.obj
 0003:fffd4000       $unwind$??$_Alloc_proxy@V?$allocator@U_Container_proxy@std@@@std@@@_Container_base12@std@@QEAAX$$QEAV?$allocator@U_Container_proxy@std@@@1@@Z 0000000140000000     Tilemap.obj
 0003:fffd4000       $unwind$??$_Allocate@$0BA@U_Default_allocate_traits@std@@$0A@@std@@YAPEAX_K@Z 0000000140000000     Tilemap.obj
 0003:fffd4000       $unwind$??$_Allocate_manually_vector_aligned@U_Default_allocate_traits@std@@@std@@YAPEAX_K@Z 0000000140000000     Tilemap.obj
 0003:fffd4000       $unwind$??$_Construct@$00PEBD@?$basic_string@DU?$char_traits@D@std@@V?$allocator@D@2@@std@@AEAAXQEBD_K@Z 0000000140000000     Tilemap.obj
 0003:fffd4000       $unwind$??$_Construct_in_place@PEADAEBQEAD@std@@YAXAEAPEADAEBQEAD@Z 0000000140000000     Tilemap.obj
 0003:fffd4000       $unwind$??$_Construct_in_place@U_Container_proxy@std@@PEAU_Container_base12@2@@std@@YAXAEAU_Container_proxy@0@$$QEAPEAU_Container_base12@0@@Z 0000000140000000     Tilemap.obj
 0003:fffd4000       $unwind$??$_Convert_size@_K_K@std@@YA_K_K@Z 0000000140000000     Tilemap.obj
 0003:fffd4000       $unwind$??$_Deallocate@$0BA@$0A@@std@@YAXPEAX_K@Z 0000000140000000     Tilemap.obj
 0003:fffd4000       $unwind$??$_Deallocate_plain@V?$allocator@U_Container_proxy@std@@@std@@@std@@YAXAEAV?$allocator@U_Container_proxy@std@@@0@QEAU_Container_proxy@0@@Z 0000000140000000     Tilemap.obj
 0003:fffd4000       $unwind$??$_Delete_plain_internal@V?$allocator@U_Container_proxy@std@@@std@@@std@@YAXAEAV?$allocator@U_Container_proxy@std@@@0@QEAU_Container_proxy@0@@Z 0000000140000000     Tilemap.obj
 0003:fffd4000       $unwind$??$_Destroy_in_place@PEAD@std@@YAXAEAPEAD@Z 0000000140000000     Tilemap.obj
 0003:fffd4000       $unwind$??$_Get_size_of_n@$00@std@@YA_K_K@Z 0000000140000000     Tilemap.obj
 0003:fffd4000       $unwind$??$_Get_size_of_n@$0BA@@std@@YA_K_K@Z 0000000140000000     Tilemap.obj
 0003:fffd4000       $unwind$??$_Unfancy@D@std@@YAPEADPEAD@Z 0000000140000000     Tilemap.obj
 0003:fffd4000       $unwind$??$_Unfancy@U_Container_proxy@std@@@std@@YAPEAU_Container_proxy@0@PEAU10@@Z 0000000140000000     Tilemap.obj
 0003:fffd4000       $unwind$??$addressof@PEAD@std@@YAPEAPEADAEAPEAD@Z 0000000140000000     Tilemap.obj
 0003:fffd4000       $unwind$??$addressof@U_Container_base12@std@@@std@@YAPEAU_Container_base12@0@AEAU10@@Z 0000000140000000     Tilemap.obj
 0003:fffd4000       $unwind$??$addressof@U_Container_proxy@std@@@std@@YAPEAU_Container_proxy@0@AEAU10@@Z 0000000140000000     Tilemap.obj
 0003:fffd4000       $unwind$??$exchange@PEAU_Iterator_base12@std@@$$T@std@@YAPEAU_Iterator_base12@0@AEAPEAU10@$$QEA$$T@Z 0000000140000000     Tilemap.obj
 0003:fffd4000       $unwind$??$max@_K@std@@YAAEB_KAEB_K0@Z 0000000140000000     Tilemap.obj
 0003:fffd4000       $unwind$??$min@_K@std@@YAAEB_KAEB_K0@Z 0000000140000000     Tilemap.obj
 0003:fffd4000       $unwind$??0?$_Container_proxy_ptr12@V?$allocator@U_Container_proxy@std@@@std@@@std@@QEAA@AEAV?$allocator@U_Container_proxy@std@@@1@AEAU_Container_base12@1@@Z 0000000140000000     Tilemap.obj
 0003:fffd4000       $unwind$??0?$_String_val@U?$_Simple_types@D@std@@@std@@QEAA@XZ 0000000140000000     Tilemap.obj
 0003:fffd4000       $unwind$??0?$allocator@D@std@@QEAA@XZ 0000000140000000     Tilemap.obj
 0003:fffd4000       $unwind$??0?$basic_string@DU?$char_traits@D@std@@V?$allocator@D@2@@std@@QEAA@QEBD@Z 0000000140000000     Tilemap.obj
 0003:fffd4000       $unwind$??0Obj@@QEAA@XZ    0000000140000000     Tilemap.obj
 0003:fffd4000       $unwind$??0_Basic_container_proxy_ptr12@std@@IEAA@XZ 0000000140000000     Tilemap.obj
 0003:fffd4000       $unwind$??0_Bxty@?$_String_val@U?$_Simple_types@D@std@@@std@@QEAA@XZ 0000000140000000     Tilemap.obj
 0003:fffd4000       $unwind$??0_Container_base12@std@@QEAA@XZ 0000000140000000     Tilemap.obj
 0003:fffd4000       $unwind$??0_Container_proxy@std@@QEAA@PEAU_Container_base12@1@@Z 0000000140000000     Tilemap.obj
 0003:fffd4000       $unwind$??0_Sentry_base@?$basic_ostream@DU?$char_traits@D@std@@@std@@QEAA@AEAV12@@Z 0000000140000000     Tilemap.obj
 0003:fffd4000       $unwind$??0bad_alloc@std@@AEAA@QEBD@Z 0000000140000000     Tilemap.obj
 0003:fffd4000       $unwind$??0bad_alloc@std@@QEAA@AEBV01@@Z 0000000140000000     Tilemap.obj
 0003:fffd4000       $unwind$??0bad_array_new_length@std@@QEAA@AEBV01@@Z 0000000140000000     Tilemap.obj
 0003:fffd4000       $unwind$??0bad_array_new_length@std@@QEAA@XZ 0000000140000000     Tilemap.obj
 0003:fffd4000       $unwind$??0exception@std@@QEAA@AEBV01@@Z 0000000140000000     Tilemap.obj
 0003:fffd4000       $unwind$??0exception@std@@QEAA@QEBDH@Z 0000000140000000     Tilemap.obj
 0003:fffd4000       $unwind$??0sentry@?$basic_ostream@DU?$char_traits@D@std@@@std@@QEAA@AEAV12@@Z 0000000140000000     Tilemap.obj
 0003:fffd4000       $unwind$??1?$_Compressed_pair@V?$allocator@D@std@@V?$_String_val@U?$_Simple_types@D@std@@@2@$00@std@@QEAA@XZ 0000000140000000     Tilemap.obj
 0003:fffd4000       $unwind$??1?$_Container_proxy_ptr12@V?$allocator@U_Container_proxy@std@@@std@@@std@@QEAA@XZ 0000000140000000     Tilemap.obj
 0003:fffd4000       $unwind$??1?$_String_val@U?$_Simple_types@D@std@@@std@@QEAA@XZ 0000000140000000     Tilemap.obj
 0003:fffd4000       $unwind$??1?$basic_string@DU?$char_traits@D@std@@V?$allocator@D@2@@std@@QEAA@XZ 0000000140000000     Tilemap.obj
 0003:fffd4000       $unwind$??1_Bxty@?$_String_val@U?$_Simple_types@D@std@@@std@@QEAA@XZ 0000000140000000     Tilemap.obj
 0003:fffd4000       $unwind$??1_Sentry_base@?$basic_ostream@DU?$char_traits@D@std@@@std@@QEAA@XZ 0000000140000000     Tilemap.obj
 0003:fffd4000       $unwind$??1bad_alloc@std@@UEAA@XZ 0000000140000000     Tilemap.obj
 0003:fffd4000       $unwind$??1bad_array_new_length@std@@UEAA@XZ 0000000140000000     Tilemap.obj
 0003:fffd4000       $unwind$??1exception@std@@UEAA@XZ 0000000140000000     Tilemap.obj
 0003:fffd4000       $unwind$??1sentry@?$basic_ostream@DU?$char_traits@D@std@@@std@@QEAA@XZ 0000000140000000     Tilemap.obj
 0003:fffd4000       $unwind$??2@YAPEAX_KPEAX@Z 0000000140000000     Tilemap.obj
 0003:fffd4000       $unwind$??Bsentry@?$basic_ostream@DU?$char_traits@D@std@@@std@@QEBA_NXZ 0000000140000000     Tilemap.obj
 0003:fffd4000       $unwind$??_Gbad_alloc@std@@UEAAPEAXI@Z 0000000140000000     Tilemap.obj
 0003:fffd4000       $unwind$??_Gbad_array_new_length@std@@UEAAPEAXI@Z 0000000140000000     Tilemap.obj
 0003:fffd4000       $unwind$??_Gexception@std@@UEAAPEAXI@Z 0000000140000000     Tilemap.obj
 0003:fffd4000       $unwind$?_Activate_SSO_buffer@?$_String_val@U?$_Simple_types@D@std@@@std@@QEAAXXZ 0000000140000000     Tilemap.obj
 0003:fffd4000       $unwind$?_Adjust_manually_vector_aligned@std@@YAXAEAPEAXAEA_K@Z 0000000140000000     Tilemap.obj
 0003:fffd4000       $unwind$?_Allocate@_Default_allocate_traits@std@@SAPEAX_K@Z 0000000140000000     Tilemap.obj
 0003:fffd4000       $unwind$?_Calculate_growth@?$basic_string@DU?$char_traits@D@std@@V?$allocator@D@2@@std@@AEBA_K_K@Z 0000000140000000     Tilemap.obj
 0003:fffd4000       $unwind$?_Calculate_growth@?$basic_string@DU?$char_traits@D@std@@V?$allocator@D@2@@std@@CA_K_K00@Z 0000000140000000     Tilemap.obj
 0003:fffd4000       $unwind$?_Check_offset@?$_String_val@U?$_Simple_types@D@std@@@std@@QEBAX_K@Z 0000000140000000     Tilemap.obj
 0003:fffd4000       $unwind$?_Get_first@?$_Compressed_pair@V?$allocator@D@std@@V?$_String_val@U?$_Simple_types@D@std@@@2@$00@std@@QEAAAEAV?$allocator@D@2@XZ 0000000140000000     Tilemap.obj
 0003:fffd4000       $unwind$?_Get_first@?$_Compressed_pair@V?$allocator@D@std@@V?$_String_val@U?$_Simple_types@D@std@@@2@$00@std@@QEBAAEBV?$allocator@D@2@XZ 0000000140000000     Tilemap.obj
 0003:fffd4000       $unwind$?_Get_first@?$_Compressed_pair@V?$allocator@VObj@@@std@@V?$_Vector_val@U?$_Simple_types@VObj@@@std@@@2@$00@std@@QEAAAEAV?$allocator@VObj@@@2@XZ 0000000140000000     Tilemap.obj
 0003:fffd4000       $unwind$?_Getal@?$basic_string@DU?$char_traits@D@std@@V?$allocator@D@2@@std@@AEAAAEAV?$allocator@D@2@XZ 0000000140000000     Tilemap.obj
 0003:fffd4000       $unwind$?_Getal@?$basic_string@DU?$char_traits@D@std@@V?$allocator@D@2@@std@@AEBAAEBV?$allocator@D@2@XZ 0000000140000000     Tilemap.obj
 0003:fffd4000       $unwind$?_Getal@?$vector@VObj@@V?$allocator@VObj@@@std@@@std@@AEAAAEAV?$allocator@VObj@@@2@XZ 0000000140000000     Tilemap.obj
 0003:fffd4000       $unwind$?_Large_string_engaged@?$_String_val@U?$_Simple_types@D@std@@@std@@QEBA_NXZ 0000000140000000     Tilemap.obj
 0003:fffd4000       $unwind$?_Myptr@?$_String_val@U?$_Simple_types@D@std@@@std@@QEAAPEADXZ 0000000140000000     Tilemap.obj
 0003:fffd4000       $unwind$?_Myptr@?$_String_val@U?$_Simple_types@D@std@@@std@@QEBAPEBDXZ 0000000140000000     Tilemap.obj
 0003:fffd4000       $unwind$?_Orphan_all@_Container_base12@std@@QEAAXXZ 0000000140000000     Tilemap.obj
 0003:fffd4000       $unwind$?_Orphan_all_locked_v3@_Container_base12@std@@AEAAXXZ 0000000140000000     Tilemap.obj
 0003:fffd4000       $unwind$?_Orphan_all_unlocked_v3@_Container_base12@std@@AEAAXXZ 0000000140000000     Tilemap.obj
 0003:fffd4000       $unwind$?_Release@_Basic_container_proxy_ptr12@std@@QEAAXXZ 0000000140000000     Tilemap.obj
 0003:fffd4000       $unwind$?_Start_element_lifetimes@?$basic_string@DU?$char_traits@D@std@@V?$allocator@D@2@@std@@CAXQEAD_K@Z 0000000140000000     Tilemap.obj
 0003:fffd4000       $unwind$?_Throw_bad_array_new_length@std@@YAXXZ 0000000140000000     Tilemap.obj
 0003:fffd4000       $unwind$?_Tidy_deallocate@?$basic_string@DU?$char_traits@D@std@@V?$allocator@D@2@@std@@AEAAXXZ 0000000140000000     Tilemap.obj
 0003:fffd4000       $unwind$?_Tidy_init@?$basic_string@DU?$char_traits@D@std@@V?$allocator@D@2@@std@@AEAAXXZ 0000000140000000     Tilemap.obj
 0003:fffd4000       $unwind$?_Xlen_string@std@@YAXXZ 0000000140000000     Tilemap.obj
 0003:fffd4000       $unwind$?_Xran@?$_String_val@U?$_Simple_types@D@std@@@std@@SAXXZ 0000000140000000     Tilemap.obj
 0003:fffd4000       $unwind$?__autoclassinit2@Obj@@QEAAX_K@Z 0000000140000000     Tilemap.obj
 0003:fffd4000       $unwind$?__empty_global_delete@@YAXPEAX@Z 0000000140000000     Tilemap.obj
 0003:fffd4000       $unwind$?__empty_global_delete@@YAXPEAX_K@Z 0000000140000000     Tilemap.obj
 0003:fffd4000       $unwind$?allocate@?$allocator@D@std@@QEAAPEAD_K@Z 0000000140000000     Tilemap.obj
 0003:fffd4000       $unwind$?allocate@?$allocator@U_Container_proxy@std@@@std@@QEAAPEAU_Container_proxy@2@_K@Z 0000000140000000     Tilemap.obj
 0003:fffd4000       $unwind$?assign@?$_Narrow_char_traits@DH@std@@SAXAEADAEBD@Z 0000000140000000     Tilemap.obj
 0003:fffd4000       $unwind$?catch$1@?0???$?6U?$char_traits@D@std@@@std@@YAAEAV?$basic_ostream@DU?$char_traits@D@std@@@0@AEAV10@PEBD@Z@4HA 0000000140000000     Tilemap.obj
 0003:fffd4000       $unwind$?copy@?$_Char_traits@DH@std@@SAPEADQEADQEBD_K@Z 0000000140000000     Tilemap.obj
 0003:fffd4000       $unwind$?deallocate@?$_Default_allocator_traits@V?$allocator@U_Container_proxy@std@@@std@@@std@@SAXAEAV?$allocator@U_Container_proxy@std@@@2@QEAU_Container_proxy@2@_K@Z 0000000140000000     Tilemap.obj
 0003:fffd4000       $unwind$?deallocate@?$allocator@D@std@@QEAAXQEAD_K@Z 0000000140000000     Tilemap.obj
 0003:fffd4000       $unwind$?dtor$0@?0???$?6U?$char_traits@D@std@@@std@@YAAEAV?$basic_ostream@DU?$char_traits@D@std@@@0@AEAV10@PEBD@Z@4HA 0000000140000000     Tilemap.obj
 0003:fffd4000       $unwind$?dtor$0@?0???$_Construct@$00PEBD@?$basic_string@DU?$char_traits@D@std@@V?$allocator@D@2@@std@@AEAAXQEBD_K@Z@4HA 0000000140000000     Tilemap.obj
 0003:fffd4000       $unwind$?dtor$0@?0???0?$basic_string@DU?$char_traits@D@std@@V?$allocator@D@2@@std@@QEAA@QEBD@Z@4HA 0000000140000000     Tilemap.obj
 0003:fffd4000       $unwind$?dtor$0@?0???0sentry@?$basic_ostream@DU?$char_traits@D@std@@@std@@QEAA@AEAV12@@Z@4HA 0000000140000000     Tilemap.obj
 0003:fffd4000       $unwind$?eof@?$_Narrow_char_traits@DH@std@@SAHXZ 0000000140000000     Tilemap.obj
 0003:fffd4000       $unwind$?eq_int_type@?$_Narrow_char_traits@DH@std@@SA_NAEBH0@Z 0000000140000000     Tilemap.obj
 0003:fffd4000       $unwind$?getDestination@Obj@@QEBA?AUSDL_Rect@@XZ 0000000140000000     Tilemap.obj
 0003:fffd4000       $unwind$?getSource@Obj@@QEBA?AUSDL_Rect@@XZ 0000000140000000     Tilemap.obj
 0003:fffd4000       $unwind$?length@?$_Narrow_char_traits@DH@std@@SA_KQEBD@Z 0000000140000000     Tilemap.obj
 0003:fffd4000       $unwind$?max@?$numeric_limits@_J@std@@SA_JXZ 0000000140000000     Tilemap.obj
 0003:fffd4000       $unwind$?max_size@?$_Default_allocator_traits@V?$allocator@D@std@@@std@@SA_KAEBV?$allocator@D@2@@Z 0000000140000000     Tilemap.obj
 0003:fffd4000       $unwind$?max_size@?$basic_string@DU?$char_traits@D@std@@V?$allocator@D@2@@std@@QEBA_KXZ 0000000140000000     Tilemap.obj
 0003:fffd4000       $unwind$?move@?$_Char_traits@DH@std@@SAPEADQEADQEBD_K@Z 0000000140000000     Tilemap.obj
 0003:fffd4000       $unwind$?setID@Obj@@QEAAXH@Z 0000000140000000     Tilemap.obj
 0003:fffd4000       $unwind$?what@exception@std@@UEBAPEBDXZ 0000000140000000     Tilemap.obj
 0003:fffd4000       ??$?6U?$char_traits@D@std@@@std@@YAAEAV?$basic_ostream@DU?$char_traits@D@std@@@0@AEAV10@PEBD@Z$rtcName$0 0000000140000000     Tilemap.obj
 0003:fffd4000       ??$_Construct@$00PEBD@?$basic_string@DU?$char_traits@D@std@@V?$allocator@D@2@@std@@AEAAXQEBD_K@Z$rtcName$0 0000000140000000     Tilemap.obj
 0003:fffd4000       ??1?$basic_string@DU?$char_traits@D@std@@V?$allocator@D@2@@std@@QEAA@XZ$rtcName$0 0000000140000000     Tilemap.obj
 0003:fffd4000       ?_Calculate_growth@?$basic_string@DU?$char_traits@D@std@@V?$allocator@D@2@@std@@CA_K_K00@Z$rtcName$0 0000000140000000     Tilemap.obj
 0003:fffd4000       ?_Orphan_all_locked_v3@_Container_base12@std@@AEAAXXZ$rtcName$0 0000000140000000     Tilemap.obj
 0002:fffef000       ?catch$1@?0???$?6U?$char_traits@D@std@@@std@@YAAEAV?$basic_ostream@DU?$char_traits@D@std@@@0@AEAV10@PEBD@Z@4HA 0000000140000000 f   Tilemap.obj
 0002:fffef000       ?dtor$0@?0???$?6U?$char_traits@D@std@@@std@@YAAEAV?$basic_ostream@DU?$char_traits@D@std@@@0@AEAV10@PEBD@Z@4HA 0000000140000000 f   Tilemap.obj
 0002:fffef000       ?dtor$0@?0???$_Construct@$00PEBD@?$basic_string@DU?$char_traits@D@std@@V?$allocator@D@2@@std@@AEAAXQEBD_K@Z@4HA 0000000140000000 f   Tilemap.obj
 0002:fffef000       ?dtor$0@?0???0?$basic_string@DU?$char_traits@D@std@@V?$allocator@D@2@@std@@QEAA@QEBD@Z@4HA 0000000140000000 f   Tilemap.obj
 0002:fffef000       ?dtor$0@?0???0sentry@?$basic_ostream@DU?$char_traits@D@std@@@std@@QEAA@AEAV12@@Z@4HA 0000000140000000 f   Tilemap.obj
 0003:fffd4000       ?max_size@?$basic_string@DU?$char_traits@D@std@@V?$allocator@D@2@@std@@QEBA_KXZ$rtcName$0 0000000140000000     Tilemap.obj
 0000:00000000       _volmd                     0000000140000000     Tilemap.obj
 0000:00000000       _volmd                     0000000140000000     Tilemap.obj
 0000:00000000       _volmd                     0000000140000000     Tilemap.obj
 0000:00000000       _volmd                     0000000140000000     Tilemap.obj
 0000:00000000       _volmd                     0000000140000000     Tilemap.obj
 0000:00000000       _volmd                     0000000140000000     Tilemap.obj
 0000:00000000       _volmd                     0000000140000000     Tilemap.obj
 0000:00000000       _volmd                     0000000140000000     Tilemap.obj
 0000:00000000       _volmd                     0000000140000000     Tilemap.obj
 0000:00000000       _volmd                     0000000140000000     Tilemap.obj
 0000:00000000       _volmd                     0000000140000000     Tilemap.obj
 0000:00000000       _volmd                     0000000140000000     Tilemap.obj
 0000:00000000       _volmd                     0000000140000000     Tilemap.obj
 0000:00000000       _volmd                     0000000140000000     Tilemap.obj
 0000:00000000       _volmd                     0000000140000000     Tilemap.obj
 0000:00000000       _volmd                     0000000140000000     Tilemap.obj
 0000:00000000       _volmd                     0000000140000000     Tilemap.obj
 0000:00000000       _volmd                     0000000140000000     Tilemap.obj
 0000:00000000       _volmd                     0000000140000000     Tilemap.obj
 0000:00000000       _volmd                     0000000140000000     Tilemap.obj
 0000:00000000       _volmd                     0000000140000000     Tilemap.obj
 0000:00000000       _volmd                     0000000140000000     Tilemap.obj
 0000:00000000       _volmd                     0000000140000000     Tilemap.obj
 0000:00000000       _volmd                     0000000140000000     Tilemap.obj
 0000:00000000       _volmd                     0000000140000000     Tilemap.obj
 0000:00000000       _volmd                     0000000140000000     Tilemap.obj
 0000:00000000       _volmd                     0000000140000000     Tilemap.obj
 0000:00000000       _volmd                     0000000140000000     Tilemap.obj
 0000:00000000       _volmd                     0000000140000000     Tilemap.obj
 0000:00000000       _volmd                     0000000140000000     Tilemap.obj
 0000:00000000       _volmd                     0000000140000000     Tilemap.obj
 0000:00000000       _volmd                     0000000140000000     Tilemap.obj
 0000:00000000       _volmd                     0000000140000000     Tilemap.obj
 0000:00000000       _volmd                     0000000140000000     Tilemap.obj
 0000:00000000       _volmd                     0000000140000000     Tilemap.obj
 0000:00000000       _volmd                     0000000140000000     Tilemap.obj
 0003:fffd4000       $unwind$?__empty_global_delete@@YAXPEAX@Z 0000000140000000     Timelimit.obj
 0003:fffd4000       $unwind$?__empty_global_delete@@YAXPEAX_K@Z 0000000140000000     Timelimit.obj
 0003:fffd4000       $cppxdata$??$?6U?$char_traits@D@std@@@std@@YAAEAV?$basic_ostream@DU?$char_traits@D@std@@@0@AEAV10@PEBD@Z 0000000140000000     UI.obj
 0003:fffd4000       $cppxdata$??0sentry@?$basic_ostream@DU?$char_traits@D@std@@@std@@QEAA@AEAV12@@Z 0000000140000000     UI.obj
 0003:fffd4000       $cppxdata$??1_Sentry_base@?$basic_ostream@DU?$char_traits@D@std@@@std@@QEAA@XZ 0000000140000000     UI.obj
 0003:fffd4000       $handlerMap$??$?6U?$char_traits@D@std@@@std@@YAAEAV?$basic_ostream@DU?$char_traits@D@std@@@0@AEAV10@PEBD@Z 0000000140000000     UI.obj
 0003:fffd4000       $ip2state$??$?6U?$char_traits@D@std@@@std@@YAAEAV?$basic_ostream@DU?$char_traits@D@std@@@0@AEAV10@PEBD@Z 0000000140000000     UI.obj
 0003:fffd4000       $ip2state$??0sentry@?$basic_ostream@DU?$char_traits@D@std@@@std@@QEAA@AEAV12@@Z 0000000140000000     UI.obj
 0003:fffd4000       $ip2state$??1_Sentry_base@?$basic_ostream@DU?$char_traits@D@std@@@std@@QEAA@XZ 0000000140000000     UI.obj
 0003:fffd4000       $stateUnwindMap$??$?6U?$char_traits@D@std@@@std@@YAAEAV?$basic_ostream@DU?$char_traits@D@std@@@0@AEAV10@PEBD@Z 0000000140000000     UI.obj
 0003:fffd4000       $stateUnwindMap$??0sentry@?$basic_ostream@DU?$char_traits@D@std@@@std@@QEAA@AEAV12@@Z 0000000140000000     UI.obj
 0003:fffd4000       $tryMap$??$?6U?$char_traits@D@std@@@std@@YAAEAV?$basic_ostream@DU?$char_traits@D@std@@@0@AEAV10@PEBD@Z 0000000140000000     UI.obj
 0003:fffd4000       $unwind$??$?6U?$char_traits@D@std@@@std@@YAAEAV?$basic_ostream@DU?$char_traits@D@std@@@0@AEAV10@PEBD@Z 0000000140000000     UI.obj
 0003:fffd4000       $unwind$??0_Sentry_base@?$basic_ostream@DU?$char_traits@D@std@@@std@@QEAA@AEAV12@@Z 0000000140000000     UI.obj
 0003:fffd4000       $unwind$??0sentry@?$basic_ostream@DU?$char_traits@D@std@@@std@@QEAA@AEAV12@@Z 0000000140000000     UI.obj
 0003:fffd4000       $unwind$??1_Sentry_base@?$basic_ostream@DU?$char_traits@D@std@@@std@@QEAA@XZ 0000000140000000     UI.obj
 0003:fffd4000       $unwind$??1sentry@?$basic_ostream@DU?$char_traits@D@std@@@std@@QEAA@XZ 0000000140000000     UI.obj
 0003:fffd4000       $unwind$??Bsentry@?$basic_ostream@DU?$char_traits@D@std@@@std@@QEBA_NXZ 0000000140000000     UI.obj
 0003:fffd4000       $unwind$?__empty_global_delete@@YAXPEAX@Z 0000000140000000     UI.obj
 0003:fffd4000       $unwind$?__empty_global_delete@@YAXPEAX_K@Z 0000000140000000     UI.obj
 0003:fffd4000       $unwind$?catch$1@?0???$?6U?$char_traits@D@std@@@std@@YAAEAV?$basic_ostream@DU?$char_traits@D@std@@@0@AEAV10@PEBD@Z@4HA 0000000140000000     UI.obj
 0003:fffd4000       $unwind$?dtor$0@?0???$?6U?$char_traits@D@std@@@std@@YAAEAV?$basic_ostream@DU?$char_traits@D@std@@@0@AEAV10@PEBD@Z@4HA 0000000140000000     UI.obj
 0003:fffd4000       $unwind$?dtor$0@?0???0sentry@?$basic_ostream@DU?$char_traits@D@std@@@std@@QEAA@AEAV12@@Z@4HA 0000000140000000     UI.obj
 0003:fffd4000       $unwind$?eof@?$_Narrow_char_traits@DH@std@@SAHXZ 0000000140000000     UI.obj
 0003:fffd4000       $unwind$?eq_int_type@?$_Narrow_char_traits@DH@std@@SA_NAEBH0@Z 0000000140000000     UI.obj
 0003:fffd4000       $unwind$?length@?$_Narrow_char_traits@DH@std@@SA_KQEBD@Z 0000000140000000     UI.obj
 0003:fffd4000       ??$?6U?$char_traits@D@std@@@std@@YAAEAV?$basic_ostream@DU?$char_traits@D@std@@@0@AEAV10@PEBD@Z$rtcName$0 0000000140000000     UI.obj
 0002:fffef000       ?catch$1@?0???$?6U?$char_traits@D@std@@@std@@YAAEAV?$basic_ostream@DU?$char_traits@D@std@@@0@AEAV10@PEBD@Z@4HA 0000000140000000 f   UI.obj
 0002:fffef000       ?dtor$0@?0???$?6U?$char_traits@D@std@@@std@@YAAEAV?$basic_ostream@DU?$char_traits@D@std@@@0@AEAV10@PEBD@Z@4HA 0000000140000000 f   UI.obj
 0002:fffef000       ?dtor$0@?0???0sentry@?$basic_ostream@DU?$char_traits@D@std@@@std@@QEAA@AEAV12@@Z@4HA 0000000140000000 f   UI.obj
 0000:00000000       _volmd                     0000000140000000     UI.obj
 0000:00000000       _volmd                     0000000140000000     UI.obj
 0000:00000000       _volmd                     0000000140000000     UI.obj
 0000:00000000       _volmd                     0000000140000000     UI.obj
 0003:fffd4000       $unwind$?__empty_global_delete@@YAXPEAX@Z 0000000140000000     WizardTime.obj
 0003:fffd4000       $unwind$?__empty_global_delete@@YAXPEAX_K@Z 0000000140000000     WizardTime.obj
 0000:00000000       _volmd                     0000000140000000     WizardTime.obj
 0000:fffbf000       .debug$S                   0000000140000000     ucrtd:ucrtbased.dll
 0000:fffbf000       .debug$S                   0000000140000000     ucrtd:ucrtbased.dll
 0000:fffbf000       .debug$S                   0000000140000000     ucrtd:ucrtbased.dll
 0000:fffbf000       .debug$S                   0000000140000000     ucrtd:ucrtbased.dll
 0000:fffbf000       .debug$S                   0000000140000000     ucrtd:ucrtbased.dll
 0000:fffbf000       .debug$S                   0000000140000000     ucrtd:ucrtbased.dll
 0000:fffbf000       .debug$S                   0000000140000000     ucrtd:ucrtbased.dll
 0000:fffbf000       .debug$S                   0000000140000000     ucrtd:ucrtbased.dll
 0000:fffbf000       .debug$S                   0000000140000000     ucrtd:ucrtbased.dll
 0000:fffbf000       .debug$S                   0000000140000000     ucrtd:ucrtbased.dll
 0000:fffbf000       .debug$S                   0000000140000000     ucrtd:ucrtbased.dll
 0000:fffbf000       .debug$S                   0000000140000000     ucrtd:ucrtbased.dll
 0000:fffbf000       .debug$S                   0000000140000000     ucrtd:ucrtbased.dll
 0000:fffbf000       .debug$S                   0000000140000000     ucrtd:ucrtbased.dll
 0000:fffbf000       .debug$S                   0000000140000000     ucrtd:ucrtbased.dll
 0000:fffbf000       .debug$S                   0000000140000000     ucrtd:ucrtbased.dll
 0000:fffbf000       .debug$S                   0000000140000000     ucrtd:ucrtbased.dll
 0000:fffbf000       .debug$S                   0000000140000000     ucrtd:ucrtbased.dll
 0000:fffbf000       .debug$S                   0000000140000000     ucrtd:ucrtbased.dll
 0000:fffbf000       .debug$S                   0000000140000000     ucrtd:ucrtbased.dll
 0000:fffbf000       .debug$S                   0000000140000000     ucrtd:ucrtbased.dll
 0000:fffbf000       .debug$S                   0000000140000000     ucrtd:ucrtbased.dll
 0000:fffbf000       .debug$S                   0000000140000000     ucrtd:ucrtbased.dll
 0000:fffbf000       .debug$S                   0000000140000000     ucrtd:ucrtbased.dll
 0000:fffbf000       .debug$S                   0000000140000000     ucrtd:ucrtbased.dll
 0000:fffbf000       .debug$S                   0000000140000000     ucrtd:ucrtbased.dll
 0000:fffbf000       .debug$S                   0000000140000000     ucrtd:ucrtbased.dll
 0000:fffbf000       .debug$S                   0000000140000000     ucrtd:ucrtbased.dll
 0000:fffbf000       .debug$S                   0000000140000000     ucrtd:ucrtbased.dll
 0000:fffbf000       .debug$S                   0000000140000000     ucrtd:ucrtbased.dll
 0000:fffbf000       .debug$S                   0000000140000000     ucrtd:ucrtbased.dll
 0000:fffbf000       .debug$S                   0000000140000000     ucrtd:ucrtbased.dll
 0000:fffbf000       .debug$S                   0000000140000000     ucrtd:ucrtbased.dll
 0000:fffbf000       .debug$S                   0000000140000000     ucrtd:ucrtbased.dll
 0000:fffbf000       .debug$S                   0000000140000000     ucrtd:ucrtbased.dll
 0000:fffbf000       .debug$S                   0000000140000000     ucrtd:ucrtbased.dll
 0000:fffbf000       .debug$S                   0000000140000000     ucrtd:ucrtbased.dll
 0000:fffbf000       .debug$S                   0000000140000000     ucrtd:ucrtbased.dll
 0000:fffbf000       .debug$S                   0000000140000000     ucrtd:ucrtbased.dll
 0000:fffbf000       .debug$S                   0000000140000000     ucrtd:ucrtbased.dll
 0000:fffbf000       .debug$S                   0000000140000000     ucrtd:ucrtbased.dll
 0000:fffbf000       .debug$S                   0000000140000000     ucrtd:ucrtbased.dll
 0000:fffbf000       .debug$S                   0000000140000000     ucrtd:ucrtbased.dll
 0000:fffbf000       .debug$S                   0000000140000000     ucrtd:ucrtbased.dll
 0000:fffbf000       .debug$S                   0000000140000000     ucrtd:ucrtbased.dll
 0000:fffbf000       .debug$S                   0000000140000000     ucrtd:ucrtbased.dll
 0000:fffbf000       .debug$S                   0000000140000000     ucrtd:ucrtbased.dll
 0000:fffbf000       .debug$S                   0000000140000000     ucrtd:ucrtbased.dll
 0000:fffbf000       .debug$S                   0000000140000000     ucrtd:ucrtbased.dll
 0000:fffbf000       .debug$S                   0000000140000000     ucrtd:ucrtbased.dll
 0000:fffbf000       .debug$S                   0000000140000000     ucrtd:ucrtbased.dll
 0000:fffbf000       .debug$S                   0000000140000000     ucrtd:ucrtbased.dll
 0000:fffbf000       .debug$S                   0000000140000000     ucrtd:ucrtbased.dll
 0000:fffbf000       .debug$S                   0000000140000000     ucrtd:ucrtbased.dll
 0000:fffbf000       .debug$S                   0000000140000000     kernel32:KERNEL32.dll
 0000:fffbf000       .debug$S                   0000000140000000     kernel32:KERNEL32.dll
 0000:fffbf000       .debug$S                   0000000140000000     kernel32:KERNEL32.dll
 0000:fffbf000       .debug$S                   0000000140000000     kernel32:KERNEL32.dll
 0000:fffbf000       .debug$S                   0000000140000000     kernel32:KERNEL32.dll
 0000:fffbf000       .debug$S                   0000000140000000     kernel32:KERNEL32.dll
 0000:fffbf000       .debug$S                   0000000140000000     kernel32:KERNEL32.dll
 0000:fffbf000       .debug$S                   0000000140000000     kernel32:KERNEL32.dll
 0000:fffbf000       .debug$S                   0000000140000000     kernel32:KERNEL32.dll
 0000:fffbf000       .debug$S                   0000000140000000     kernel32:KERNEL32.dll
 0000:fffbf000       .debug$S                   0000000140000000     kernel32:KERNEL32.dll
 0000:fffbf000       .debug$S                   0000000140000000     kernel32:KERNEL32.dll
 0000:fffbf000       .debug$S                   0000000140000000     kernel32:KERNEL32.dll
 0000:fffbf000       .debug$S                   0000000140000000     kernel32:KERNEL32.dll
 0000:fffbf000       .debug$S                   0000000140000000     kernel32:KERNEL32.dll
 0000:fffbf000       .debug$S                   0000000140000000     kernel32:KERNEL32.dll
 0000:fffbf000       .debug$S                   0000000140000000     kernel32:KERNEL32.dll
 0000:fffbf000       .debug$S                   0000000140000000     kernel32:KERNEL32.dll
 0000:fffbf000       .debug$S                   0000000140000000     kernel32:KERNEL32.dll
 0000:fffbf000       .debug$S                   0000000140000000     kernel32:KERNEL32.dll
 0000:fffbf000       .debug$S                   0000000140000000     kernel32:KERNEL32.dll
 0000:fffbf000       .debug$S                   0000000140000000     kernel32:KERNEL32.dll
 0000:fffbf000       .debug$S                   0000000140000000     kernel32:KERNEL32.dll
 0000:fffbf000       .debug$S                   0000000140000000     kernel32:KERNEL32.dll
 0000:fffbf000       .debug$S                   0000000140000000     kernel32:KERNEL32.dll
 0000:fffbf000       .debug$S                   0000000140000000     kernel32:KERNEL32.dll
 0000:fffbf000       .debug$S                   0000000140000000     kernel32:KERNEL32.dll
 0000:fffbf000       .debug$S                   0000000140000000     kernel32:KERNEL32.dll
 0000:fffbf000       .debug$S                   0000000140000000     shell32:SHELL32.dll
 0000:00000000       _volmd                     0000000140000000     MSVCRTD:cpu_disp.obj
 0000:fffc3000       __guard_ehcont_?notify_debugger@@YAXAEBUtagEXCEPTION_VISUALCPP_DEBUG_INFO@@@Z 0000000140000000     MSVCRTD:error.obj
 0000:fffc3000       __guard_ehcont_?__scrt_common_main_seh@@YAHXZ 0000000140000000     MSVCRTD:exe_main.obj
 0000:fffc3000       __guard_fids_?pre_c_initialization@@YAHXZ 0000000140000000     MSVCRTD:exe_main.obj
 0000:fffc3000       __guard_fids__             0000000140000000     MSVCRTD:exe_main.obj
 0000:00000000       _volmd                     0000000140000000     MSVCRTD:gs_report.obj
 0000:00000000       _volmd                     0000000140000000     MSVCRTD:gs_report.obj
 0000:00000000       _volmd                     0000000140000000     MSVCRTD:gs_report.obj
 0000:fffc3000       __guard_fids__             0000000140000000     MSVCRTD:guard_support.obj
 0000:fffc3000       __guard_fids__             0000000140000000     MSVCRTD:guard_support.obj
 0000:fffc3000       __guard_fids__guard_icall_checks_enforced 0000000140000000     MSVCRTD:guard_support.obj
 0000:00000000       _volmd                     0000000140000000     MSVCRTD:guard_support.obj
 0000:00000000       _volmd                     0000000140000000     MSVCRTD:guard_support.obj
 0000:00000000       _volmd                     0000000140000000     MSVCRTD:guard_support.obj
 0000:00000000       _volmd                     0000000140000000     MSVCRTD:guard_support.obj
 0000:fffc3000       __guard_fids__CRT_RTC_INIT 0000000140000000     MSVCRTD:init.obj
 0000:fffc3000       __guard_fids__CRT_RTC_INITW 0000000140000000     MSVCRTD:init.obj
 0000:fffc3000       __guard_fids__             0000000140000000     MSVCRTD:std_type_info_static.obj
 0003:fffd4000       $unwind$??0bad_alloc@std@@AEAA@QEBD@Z 0000000140000000     MSVCRTD:throw_bad_alloc.obj
 0003:fffd4000       $unwind$??0bad_alloc@std@@QEAA@AEBV01@@Z 0000000140000000     MSVCRTD:throw_bad_alloc.obj
 0003:fffd4000       $unwind$??0bad_array_new_length@std@@QEAA@AEBV01@@Z 0000000140000000     MSVCRTD:throw_bad_alloc.obj
 0003:fffd4000       $unwind$??0bad_array_new_length@std@@QEAA@XZ 0000000140000000     MSVCRTD:throw_bad_alloc.obj
 0003:fffd4000       $unwind$??0exception@std@@QEAA@AEBV01@@Z 0000000140000000     MSVCRTD:throw_bad_alloc.obj
 0003:fffd4000       $unwind$??0exception@std@@QEAA@QEBDH@Z 0000000140000000     MSVCRTD:throw_bad_alloc.obj
 0003:fffd4000       $unwind$??1bad_alloc@std@@UEAA@XZ 0000000140000000     MSVCRTD:throw_bad_alloc.obj
 0003:fffd4000       $unwind$??1bad_array_new_length@std@@UEAA@XZ 0000000140000000     MSVCRTD:throw_bad_alloc.obj
 0003:fffd4000       $unwind$??1exception@std@@UEAA@XZ 0000000140000000     MSVCRTD:throw_bad_alloc.obj
 0003:fffd4000       $unwind$??_Gbad_alloc@std@@UEAAPEAXI@Z 0000000140000000     MSVCRTD:throw_bad_alloc.obj
 0003:fffd4000       $unwind$??_Gbad_array_new_length@std@@UEAAPEAXI@Z 0000000140000000     MSVCRTD:throw_bad_alloc.obj
 0003:fffd4000       $unwind$??_Gexception@std@@UEAAPEAXI@Z 0000000140000000     MSVCRTD:throw_bad_alloc.obj
 0003:fffd4000       $unwind$?what@exception@std@@UEBAPEBDXZ 0000000140000000     MSVCRTD:throw_bad_alloc.obj
 0000:fffc3000       __guard_fids__             0000000140000000     MSVCRTD:throw_bad_alloc.obj
 0000:fffc3000       __guard_fids__             0000000140000000     MSVCRTD:throw_bad_alloc.obj
 0000:fffc3000       __guard_fids__             0000000140000000     MSVCRTD:throw_bad_alloc.obj
 0003:fffd4000       $unwind$?configure_argv@__scrt_narrow_argv_policy@@SAHXZ 0000000140000000     MSVCRTD:utility.obj
 0003:fffd4000       $unwind$?initialize_environment@__scrt_narrow_environment_policy@@SAHXZ 0000000140000000     MSVCRTD:utility.obj
 0000:fffc3000       __guard_ehcont___scrt_is_nonwritable_in_current_image 0000000140000000     MSVCRTD:utility.obj
 0000:00000000       _volmd                     0000000140000000     MSVCRTD:utility.obj
 0000:00000000       _volmd                     0000000140000000     MSVCRTD:utility.obj
 0000:00000000       _volmd                     0000000140000000     MSVCRTD:utility.obj
 0000:fffc3000       __guard_fids___scrt_set_unhandled_exception_filter 0000000140000000     MSVCRTD:utility_desktop.obj
 0000:00000000       _volmd                     0000000140000000     MSVCRTD:utility_desktop.obj
 0000:fffc3000       __guard_fids_??__F_Fac_tidy_reg@std@@YAXXZ 0000000140000000     msvcprtd:locale0_implib.obj
 0000:fffc3000       __guard_fids__             0000000140000000     msvcprtd:locale0_implib.obj
 0000:fffbf000       .debug$S                   0000000140000000     msvcprtd:MSVCP140D.dll
 0000:fffbf000       .debug$S                   0000000140000000     msvcprtd:MSVCP140D.dll
 0000:fffbf000       .debug$S                   0000000140000000     msvcprtd:MSVCP140D.dll
 0000:fffbf000       .debug$S                   0000000140000000     msvcprtd:MSVCP140D.dll
 0000:fffbf000       .debug$S                   0000000140000000     msvcprtd:MSVCP140D.dll
 0000:fffbf000       .debug$S                   0000000140000000     msvcprtd:MSVCP140D.dll
 0000:fffbf000       .debug$S                   0000000140000000     msvcprtd:MSVCP140D.dll
 0000:fffbf000       .debug$S                   0000000140000000     msvcprtd:MSVCP140D.dll
 0000:fffbf000       .debug$S                   0000000140000000     msvcprtd:MSVCP140D.dll
 0000:fffbf000       .debug$S                   0000000140000000     msvcprtd:MSVCP140D.dll
 0000:fffbf000       .debug$S                   0000000140000000     msvcprtd:MSVCP140D.dll
 0000:fffbf000       .debug$S                   0000000140000000     msvcprtd:MSVCP140D.dll
 0000:fffbf000       .debug$S                   0000000140000000     msvcprtd:MSVCP140D.dll
 0000:fffbf000       .debug$S                   0000000140000000     msvcprtd:MSVCP140D.dll
 0000:fffbf000       .debug$S                   0000000140000000     msvcprtd:MSVCP140D.dll
 0000:fffbf000       .debug$S                   0000000140000000     msvcprtd:MSVCP140D.dll
 0000:fffbf000       .debug$S                   0000000140000000     msvcprtd:MSVCP140D.dll
 0000:fffbf000       .debug$S                   0000000140000000     msvcprtd:MSVCP140D.dll
 0000:fffbf000       .debug$S                   0000000140000000     msvcprtd:MSVCP140D.dll
 0000:fffbf000       .debug$S                   0000000140000000     msvcprtd:MSVCP140D.dll
 0000:fffbf000       .debug$S                   0000000140000000     msvcprtd:MSVCP140D.dll
 0000:fffbf000       .debug$S                   0000000140000000     msvcprtd:MSVCP140D.dll
 0000:fffbf000       .debug$S                   0000000140000000     msvcprtd:MSVCP140D.dll
 0000:fffbf000       .debug$S                   0000000140000000     msvcprtd:MSVCP140D.dll
 0000:fffbf000       .debug$S                   0000000140000000     msvcprtd:MSVCP140D.dll
 0000:fffbf000       .debug$S                   0000000140000000     msvcprtd:MSVCP140D.dll
 0000:fffbf000       .debug$S                   0000000140000000     msvcprtd:MSVCP140D.dll
 0000:fffbf000       .debug$S                   0000000140000000     msvcprtd:MSVCP140D.dll
 0000:fffbf000       .debug$S                   0000000140000000     msvcprtd:MSVCP140D.dll
 0000:fffbf000       .debug$S                   0000000140000000     msvcprtd:MSVCP140D.dll
 0000:fffbf000       .debug$S                   0000000140000000     msvcprtd:MSVCP140D.dll
 0000:fffbf000       .debug$S                   0000000140000000     msvcprtd:MSVCP140D.dll
 0000:fffbf000       .debug$S                   0000000140000000     msvcprtd:MSVCP140D.dll
 0000:fffbf000       .debug$S                   0000000140000000     msvcprtd:MSVCP140D.dll
 0000:fffbf000       .debug$S                   0000000140000000     msvcprtd:MSVCP140D.dll
 0000:fffbf000       .debug$S                   0000000140000000     msvcprtd:MSVCP140D.dll
 0000:fffbf000       .debug$S                   0000000140000000     msvcprtd:MSVCP140D.dll
 0000:fffbf000       .debug$S                   0000000140000000     msvcprtd:MSVCP140D.dll
 0000:fffbf000       .debug$S                   0000000140000000     msvcprtd:MSVCP140D.dll
 0000:fffbf000       .debug$S                   0000000140000000     msvcprtd:MSVCP140D.dll
 0000:fffbf000       .debug$S                   0000000140000000     msvcprtd:MSVCP140D.dll
 0000:fffbf000       .debug$S                   0000000140000000     msvcprtd:MSVCP140D.dll
 0000:fffbf000       .debug$S                   0000000140000000     msvcprtd:MSVCP140D.dll
 0000:fffbf000       .debug$S                   0000000140000000     msvcprtd:MSVCP140D.dll
 0000:fffbf000       .debug$S                   0000000140000000     msvcprtd:MSVCP140D.dll
 0000:fffbf000       .debug$S                   0000000140000000     msvcprtd:MSVCP140D.dll
 0000:fffbf000       .debug$S                   0000000140000000     msvcprtd:MSVCP140D.dll
 0000:fffbf000       .debug$S                   0000000140000000     msvcprtd:MSVCP140D.dll
 0000:fffbf000       .debug$S                   0000000140000000     msvcprtd:MSVCP140D.dll
 0000:fffbf000       .debug$S                   0000000140000000     msvcprtd:MSVCP140D.dll
 0000:fffbf000       .debug$S                   0000000140000000     msvcprtd:MSVCP140D.dll
 0000:fffbf000       .debug$S                   0000000140000000     msvcprtd:MSVCP140D.dll
 0000:fffbf000       .debug$S                   0000000140000000     msvcprtd:MSVCP140D.dll
 0000:fffbf000       .debug$S                   0000000140000000     msvcprtd:MSVCP140D.dll
 0000:fffbf000       .debug$S                   0000000140000000     msvcprtd:MSVCP140D.dll
 0000:fffbf000       .debug$S                   0000000140000000     msvcprtd:MSVCP140D.dll
 0000:fffbf000       .debug$S                   0000000140000000     msvcprtd:MSVCP140D.dll
 0000:fffbf000       .debug$S                   0000000140000000     msvcprtd:MSVCP140D.dll
 0000:fffbf000       .debug$S                   0000000140000000     msvcprtd:MSVCP140D.dll
 0000:fffc3000       __guard_fids__             0000000140000000     vcruntimed:softmemtag.obj
 0000:fffbf000       .debug$S                   0000000140000000     vcruntimed:VCRUNTIME140D.dll
 0000:fffbf000       .debug$S                   0000000140000000     vcruntimed:VCRUNTIME140D.dll
 0000:fffbf000       .debug$S                   0000000140000000     vcruntimed:VCRUNTIME140D.dll
 0000:fffbf000       .debug$S                   0000000140000000     vcruntimed:VCRUNTIME140D.dll
 0000:fffbf000       .debug$S                   0000000140000000     vcruntimed:VCRUNTIME140D.dll
 0000:fffbf000       .debug$S                   0000000140000000     vcruntimed:VCRUNTIME140D.dll
 0000:fffbf000       .debug$S                   0000000140000000     vcruntimed:VCRUNTIME140D.dll
 0000:fffbf000       .debug$S                   0000000140000000     vcruntimed:VCRUNTIME140D.dll
 0000:fffbf000       .debug$S                   0000000140000000     vcruntimed:VCRUNTIME140D.dll
 0000:fffbf000       .debug$S                   0000000140000000     vcruntimed:VCRUNTIME140D.dll
 0000:fffbf000       .debug$S                   0000000140000000     vcruntimed:VCRUNTIME140D.dll
 0000:fffbf000       .debug$S                   0000000140000000     vcruntimed:VCRUNTIME140D.dll
 0000:fffbf000       .debug$S                   0000000140000000     vcruntimed:VCRUNTIME140D.dll
 0000:fffbf000       .debug$S                   0000000140000000     vcruntimed:VCRUNTIME140_1D.dll
 0000:fffbf000       .debug$S                   0000000140000000     SDL2:SDL2.dll
 0000:fffbf000       .debug$S                   0000000140000000     SDL2:SDL2.dll
 0000:fffbf000       .debug$S                   0000000140000000     SDL2:SDL2.dll
 0000:fffbf000       .debug$S                   0000000140000000     SDL2:SDL2.dll
 0000:fffbf000       .debug$S                   0000000140000000     SDL2:SDL2.dll
 0000:fffbf000       .debug$S                   0000000140000000     SDL2:SDL2.dll
 0000:fffbf000       .debug$S                   0000000140000000     SDL2:SDL2.dll
 0000:fffbf000       .debug$S                   0000000140000000     SDL2:SDL2.dll
 0000:fffbf000       .debug$S                   0000000140000000     SDL2:SDL2.dll
 0000:fffbf000       .debug$S                   0000000140000000     SDL2:SDL2.dll
 0000:fffbf000       .debug$S                   0000000140000000     SDL2:SDL2.dll
 0000:fffbf000       .debug$S                   0000000140000000     SDL2:SDL2.dll
 0000:fffbf000       .debug$S                   0000000140000000     SDL2:SDL2.dll
 0000:fffbf000       .debug$S                   0000000140000000     SDL2:SDL2.dll
 0000:fffbf000       .debug$S                   0000000140000000     SDL2:SDL2.dll
 0000:fffbf000       .debug$S                   0000000140000000     SDL2:SDL2.dll
 0000:fffbf000       .debug$S                   0000000140000000     SDL2:SDL2.dll
 0000:fffbf000       .debug$S                   0000000140000000     SDL2:SDL2.dll
 0000:fffbf000       .debug$S                   0000000140000000     SDL2:SDL2.dll
 0000:fffbf000       .debug$S                   0000000140000000     SDL2:SDL2.dll
 0000:fffbf000       .debug$S                   0000000140000000     SDL2:SDL2.dll
 0000:fffbf000       .debug$S                   0000000140000000     SDL2:SDL2.dll
 0000:fffbf000       .debug$S                   0000000140000000     SDL2:SDL2.dll
 0000:fffbf000       .debug$S                   0000000140000000     SDL2:SDL2.dll
 0000:fffbf000       .debug$S                   0000000140000000     SDL2:SDL2.dll
 0000:fffbf000       .debug$S                   0000000140000000     SDL2:SDL2.dll
 0000:fffbf000       .debug$S                   0000000140000000     SDL2_image:SDL2_image.dll
 0000:fffbf000       .debug$S                   0000000140000000     SDL2_image:SDL2_image.dll
 0000:fffbf000       .debug$S                   0000000140000000     SDL2_image:SDL2_image.dll
 0000:fffbf000       .debug$S                   0000000140000000     SDL2_ttf:SDL2_ttf.dll
 0000:fffbf000       .debug$S                   0000000140000000     SDL2_ttf:SDL2_ttf.dll
 0000:fffbf000       .debug$S                   0000000140000000     SDL2_ttf:SDL2_ttf.dll
 0000:fffbf000       .debug$S                   0000000140000000     SDL2_ttf:SDL2_ttf.dll
 0000:fffbf000       .debug$S                   0000000140000000     SDL2_ttf:SDL2_ttf.dll
 0000:fffc3004       __guard_fids__             0000000140000004     MSVCRTD:exe_main.obj
 0003:fffd4008       ??$_Construct@$00PEBD@?$basic_string@DU?$char_traits@D@std@@V?$allocator@D@2@@std@@AEAAXQEBD_K@Z$rtcName$1 0000000140000008     Tilemap.obj
 0000:fffc3008       __guard_fids__             0000000140000008     MSVCRTD:exe_main.obj
 0003:fffd4010       ??$?6U?$char_traits@D@std@@@std@@YAAEAV?$basic_ostream@DU?$char_traits@D@std@@@0@AEAV10@PEBD@Z$rtcVarDesc 0000000140000010     Game.obj
 0003:fffd4010       ?_Calculate_growth@?$basic_string@DU?$char_traits@D@std@@V?$allocator@D@2@@std@@CA_K_K00@Z$rtcVarDesc 0000000140000010     Gameworld.obj
 0003:fffd4010       ?max_size@?$basic_string@DU?$char_traits@D@std@@V?$allocator@D@2@@std@@QEBA_KXZ$rtcVarDesc 0000000140000010     Gameworld.obj
 0003:fffd4010       ??1?$basic_string@DU?$char_traits@D@std@@V?$allocator@D@2@@std@@QEAA@XZ$rtcVarDesc 0000000140000010     Obj.obj
 0003:fffd4010       ?_Orphan_all_locked_v3@_Container_base12@std@@AEAAXXZ$rtcVarDesc 0000000140000010     Obj.obj
 0003:fffd4010       ??$?6U?$char_traits@D@std@@@std@@YAAEAV?$basic_ostream@DU?$char_traits@D@std@@@0@AEAV10@PEBD@Z$rtcVarDesc 0000000140000010     Splashscreen.obj
 0003:fffd4010       ??$?6U?$char_traits@D@std@@@std@@YAAEAV?$basic_ostream@DU?$char_traits@D@std@@@0@AEAV10@PEBD@Z$rtcVarDesc 0000000140000010     Tilemap.obj
 0003:fffd4010       ??$_Construct@$00PEBD@?$basic_string@DU?$char_traits@D@std@@V?$allocator@D@2@@std@@AEAAXQEBD_K@Z$rtcName$2 0000000140000010     Tilemap.obj
 0003:fffd4010       ??1?$basic_string@DU?$char_traits@D@std@@V?$allocator@D@2@@std@@QEAA@XZ$rtcVarDesc 0000000140000010     Tilemap.obj
 0003:fffd4010       ?_Calculate_growth@?$basic_string@DU?$char_traits@D@std@@V?$allocator@D@2@@std@@CA_K_K00@Z$rtcVarDesc 0000000140000010     Tilemap.obj
 0003:fffd4010       ?_Orphan_all_locked_v3@_Container_base12@std@@AEAAXXZ$rtcVarDesc 0000000140000010     Tilemap.obj
 0003:fffd4010       ?max_size@?$basic_string@DU?$char_traits@D@std@@V?$allocator@D@2@@std@@QEBA_KXZ$rtcVarDesc 0000000140000010     Tilemap.obj
 0003:fffd4010       ??$?6U?$char_traits@D@std@@@std@@YAAEAV?$basic_ostream@DU?$char_traits@D@std@@@0@AEAV10@PEBD@Z$rtcVarDesc 0000000140000010     UI.obj
 0002:fffef014       __catch$??$?6U?$char_traits@D@std@@@std@@YAAEAV?$basic_ostream@DU?$char_traits@D@std@@@0@AEAV10@PEBD@Z$0 0000000140000014 f   Game.obj
 0002:fffef014       __catch$??$?6U?$char_traits@D@std@@@std@@YAAEAV?$basic_ostream@DU?$char_traits@D@std@@@0@AEAV10@PEBD@Z$0 0000000140000014 f   Splashscreen.obj
 0002:fffef014       __catch$??$?6U?$char_traits@D@std@@@std@@YAAEAV?$basic_ostream@DU?$char_traits@D@std@@@0@AEAV10@PEBD@Z$0 0000000140000014 f   Tilemap.obj
 0002:fffef014       __catch$??$?6U?$char_traits@D@std@@@std@@YAAEAV?$basic_ostream@DU?$char_traits@D@std@@@0@AEAV10@PEBD@Z$0 0000000140000014 f   UI.obj
 0003:fffd4020       ??$_Construct@$00PEBD@?$basic_string@DU?$char_traits@D@std@@V?$allocator@D@2@@std@@AEAAXQEBD_K@Z$rtcVarDesc 0000000140000020     Tilemap.obj
 0003:fffd4050       ??$?6U?$char_traits@D@std@@@std@@YAAEAV?$basic_ostream@DU?$char_traits@D@std@@@0@AEAV10@PEBD@Z$rtcFrameData 0000000140000050     Game.obj
 0003:fffd4050       ?_Calculate_growth@?$basic_string@DU?$char_traits@D@std@@V?$allocator@D@2@@std@@CA_K_K00@Z$rtcFrameData 0000000140000050     Gameworld.obj
 0003:fffd4050       ?max_size@?$basic_string@DU?$char_traits@D@std@@V?$allocator@D@2@@std@@QEBA_KXZ$rtcFrameData 0000000140000050     Gameworld.obj
 0003:fffd4050       ??1?$basic_string@DU?$char_traits@D@std@@V?$allocator@D@2@@std@@QEAA@XZ$rtcFrameData 0000000140000050     Obj.obj
 0003:fffd4050       ?_Orphan_all_locked_v3@_Container_base12@std@@AEAAXXZ$rtcFrameData 0000000140000050     Obj.obj
 0003:fffd4050       ??$?6U?$char_traits@D@std@@@std@@YAAEAV?$basic_ostream@DU?$char_traits@D@std@@@0@AEAV10@PEBD@Z$rtcFrameData 0000000140000050     Splashscreen.obj
 0003:fffd4050       ??$?6U?$char_traits@D@std@@@std@@YAAEAV?$basic_ostream@DU?$char_traits@D@std@@@0@AEAV10@PEBD@Z$rtcFrameData 0000000140000050     Tilemap.obj
 0003:fffd4050       ??1?$basic_string@DU?$char_traits@D@std@@V?$allocator@D@2@@std@@QEAA@XZ$rtcFrameData 0000000140000050     Tilemap.obj
 0003:fffd4050       ?_Calculate_growth@?$basic_string@DU?$char_traits@D@std@@V?$allocator@D@2@@std@@CA_K_K00@Z$rtcFrameData 0000000140000050     Tilemap.obj
 0003:fffd4050       ?_Orphan_all_locked_v3@_Container_base12@std@@AEAAXXZ$rtcFrameData 0000000140000050     Tilemap.obj
 0003:fffd4050       ?max_size@?$basic_string@DU?$char_traits@D@std@@V?$allocator@D@2@@std@@QEBA_KXZ$rtcFrameData 0000000140000050     Tilemap.obj
 0003:fffd4050       ??$?6U?$char_traits@D@std@@@std@@YAAEAV?$basic_ostream@DU?$char_traits@D@std@@@0@AEAV10@PEBD@Z$rtcFrameData 0000000140000050     UI.obj
 0003:fffd40e0       ??$_Construct@$00PEBD@?$basic_string@DU?$char_traits@D@std@@V?$allocator@D@2@@std@@AEAAXQEBD_K@Z$rtcFrameData 00000001400000e0     Tilemap.obj
 0002:000018b0       ??__EgW@@YAXXZ             00000001400128b0 f   Game.obj
 0002:00001950       ??__Emap@@YAXXZ            0000000140012950 f   Gameworld.obj
 0002:00001a10       ??__Eplayer@@YAXXZ         0000000140012a10 f   Gameworld.obj
 0002:00001ad0       ??__F_Fac_tidy_reg@std@@YAXXZ 0000000140012ad0 f   msvcprtd:locale0_implib.obj
 0002:000111c0       $$000000                   00000001400221c0     MSVCRTD:amdsecgs.obj
 0002:00011400       ?pre_c_initialization@@YAHXZ 0000000140022400 f   MSVCRTD:exe_main.obj
 0002:000114e0       ?post_pgo_initialization@@YAHXZ 00000001400224e0 f   MSVCRTD:exe_main.obj
 0002:00011500       ?pre_cpp_initialization@@YAXXZ 0000000140022500 f   MSVCRTD:exe_main.obj
 0002:00011520       ?__scrt_common_main@@YAHXZ 0000000140022520 f   MSVCRTD:exe_main.obj
 0002:00011540       ?__scrt_common_main_seh@@YAHXZ 0000000140022540 f   MSVCRTD:exe_main.obj
 0002:00011790       ?invoke_main@@YAHXZ        0000000140022790 f   MSVCRTD:exe_main.obj
 0002:00011870       ?find_pe_section@@YAPEAU_IMAGE_SECTION_HEADER@@QEAE_K@Z 0000000140022870 f   MSVCRTD:utility.obj
 0002:00011970       ?is_potentially_valid_image_base@@YA_NQEAX@Z 0000000140022970 f   MSVCRTD:utility.obj
 0002:00012190       __castguard_check_failure_os_handled_wrapper 0000000140023190 f   MSVCRTD:guard_support.obj
 0002:00012200       __castguard_check_failure_user_handled_wrapper 0000000140023200 f   MSVCRTD:guard_support.obj
 0002:00012250       __castguard_compat_check   0000000140023250 f   MSVCRTD:guard_support.obj
 0002:000124a0       __castguard_slow_path_compat_check 00000001400234a0 f   MSVCRTD:guard_support.obj
 0002:00012670       ?DebuggerProbe@@YA_NK@Z    0000000140023670 f   MSVCRTD:error.obj
 0002:000126c0       ?DebuggerRuntime@@YA_NKHPEAXPEB_W@Z 00000001400236c0 f   MSVCRTD:error.obj
 0002:00012a50       ?_getMemBlockDataString@@YAXPEAD0PEBD_K@Z 0000000140023a50 f   MSVCRTD:error.obj
 0002:00012b30       ?_strlen_priv@@YA_KPEBD@Z  0000000140023b30 f   MSVCRTD:error.obj
 0002:00012b50       ?failwithmessage@@YAXPEAXHHPEBD@Z 0000000140023b50 f   MSVCRTD:error.obj
 0002:00012e50       ?notify_debugger@@YAXAEBUtagEXCEPTION_VISUALCPP_DEBUG_INFO@@@Z 0000000140023e50 f   MSVCRTD:error.obj
 0002:000134b0       capture_current_context    00000001400244b0 f   MSVCRTD:gs_report.obj
 0002:00013570       capture_previous_context   0000000140024570 f   MSVCRTD:gs_report.obj
 0002:00013650       __get_entropy              0000000140024650 f   MSVCRTD:gs_support.obj
 0002:00014370       ?GetPdbDll@@YAPEAUHINSTANCE__@@XZ 0000000140025370 f   MSVCRTD:pdblkup.obj
 0002:00014530       ?GetPdbDllFromInstallPath@@YAPEAUHINSTANCE__@@XZ 0000000140025530 f   MSVCRTD:pdblkup.obj
 0002:00014890       ?GetPdbDllPathFromFilePath@@YAHPEB_WPEA_W_K@Z 0000000140025890 f   MSVCRTD:pdblkup.obj
 0002:00015040       main_getcmdline            0000000140026040 f   SDL2main:SDL_windows_main.obj
 0002:000168c0       $$000000                   00000001400278c0     MSVCRTD:guard_dispatch.obj
 0002:000168e0       $$000000                   00000001400278e0     MSVCRTD:guard_xfg_dispatch.obj
 0002:00017900       ?dtor$0@?0???$?6U?$char_traits@D@std@@@std@@YAAEAV?$basic_ostream@DU?$char_traits@D@std@@@0@AEAV10@PEBD@Z@4HA 0000000140028900 f   Endscreen.obj
 0002:00017930       ?catch$1@?0???$?6U?$char_traits@D@std@@@std@@YAAEAV?$basic_ostream@DU?$char_traits@D@std@@@0@AEAV10@PEBD@Z@4HA 0000000140028930 f   Endscreen.obj
 0002:00017944       __catch$??$?6U?$char_traits@D@std@@@std@@YAAEAV?$basic_ostream@DU?$char_traits@D@std@@@0@AEAV10@PEBD@Z$0 0000000140028944 f   Endscreen.obj
 0002:000179a0       ?dtor$0@?0???0Endscreen@@QEAA@PEAUSDL_Renderer@@@Z@4HA 00000001400289a0 f   Endscreen.obj
 0002:000179e0       ?dtor$1@?0???0Endscreen@@QEAA@PEAUSDL_Renderer@@@Z@4HA 00000001400289e0 f   Endscreen.obj
 0002:00017a20       ?dtor$0@?0???0sentry@?$basic_ostream@DU?$char_traits@D@std@@@std@@QEAA@AEAV12@@Z@4HA 0000000140028a20 f   Endscreen.obj
 0002:00017a50       ?dtor$0@?0???$?0PEAD$0A@@?$basic_string@DU?$char_traits@D@std@@V?$allocator@D@2@@std@@QEAA@PEAD0AEBV?$allocator@D@1@@Z@4HA 0000000140028a50 f   Game.obj
 0002:00017a80       ?dtor$0@?0???$_Construct@$00PEAD@?$basic_string@DU?$char_traits@D@std@@V?$allocator@D@2@@std@@AEAAXQEAD_K@Z@4HA 0000000140028a80 f   Game.obj
 0002:00017ab0       ?dtor$0@?0???__EgW@@YAXXZ@4HA 0000000140028ab0 f   Game.obj
 0002:00017af0       ?dtor$0@?0??init@Game@@QEAAXXZ@4HA 0000000140028af0 f   Game.obj
 0002:00017b30       ?dtor$0@?0??update@Game@@QEAAXXZ@4HA 0000000140028b30 f   Game.obj
 0002:00017b60       ?dtor$1@?0??update@Game@@QEAAXXZ@4HA 0000000140028b60 f   Game.obj
 0002:00017b90       ?dtor$0@?0???$_Construct@$00PEBD@?$basic_string@DU?$char_traits@D@std@@V?$allocator@D@2@@std@@AEAAXQEBD_K@Z@4HA 0000000140028b90 f   Gameworld.obj
 0002:00017bc0       ?dtor$0@?0???0?$basic_string@DU?$char_traits@D@std@@V?$allocator@D@2@@std@@QEAA@QEBD@Z@4HA 0000000140028bc0 f   Gameworld.obj
 0002:00017bf0       ?dtor$0@?0???0Splashscreen@@QEAA@PEAUSDL_Renderer@@@Z@4HA 0000000140028bf0 f   Splashscreen.obj
 0002:00017c30       ?dtor$1@?0???0Splashscreen@@QEAA@PEAUSDL_Renderer@@@Z@4HA 0000000140028c30 f   Splashscreen.obj
 0002:00017c70       ?dtor$2@?0???0Splashscreen@@QEAA@PEAUSDL_Renderer@@@Z@4HA 0000000140028c70 f   Splashscreen.obj
 0002:00017cb0       ?dtor$3@?0???0Splashscreen@@QEAA@PEAUSDL_Renderer@@@Z@4HA 0000000140028cb0 f   Splashscreen.obj
 0002:00017cf0       ?dtor$4@?0???0Splashscreen@@QEAA@PEAUSDL_Renderer@@@Z@4HA 0000000140028cf0 f   Splashscreen.obj
 0002:00017d30       ?catch$0@?0???$_Emplace_reallocate@AEBVObj@@@?$vector@VObj@@V?$allocator@VObj@@@std@@@std@@AEAAPEAVObj@@QEAV2@AEBV2@@Z@4HA 0000000140028d30 f   Tilemap.obj
 0002:00017d44       __catch$??$_Emplace_reallocate@AEBVObj@@@?$vector@VObj@@V?$allocator@VObj@@@std@@@std@@AEAAPEAVObj@@QEAV2@AEBV2@@Z$0 0000000140028d44 f   Tilemap.obj
 0002:00017db0       ?dtor$0@?0???$_Uninitialized_move@PEAVObj@@V?$allocator@VObj@@@std@@@std@@YAPEAVObj@@QEAV1@0PEAV1@AEAV?$allocator@VObj@@@0@@Z@4HA 0000000140028db0 f   Tilemap.obj
 0002:00017de0       ?dtor$0@?0???$use_facet@V?$codecvt@DDU_Mbstatet@@@std@@@std@@YAAEBV?$codecvt@DDU_Mbstatet@@@0@AEBVlocale@0@@Z@4HA 0000000140028de0 f   Tilemap.obj
 0002:00017e10       ?dtor$1@?0???$use_facet@V?$codecvt@DDU_Mbstatet@@@std@@@std@@YAAEBV?$codecvt@DDU_Mbstatet@@@0@AEBVlocale@0@@Z@4HA 0000000140028e10 f   Tilemap.obj
 0002:00017e40       ?dtor$0@?0???0?$basic_ifstream@DU?$char_traits@D@std@@@std@@QEAA@PEBDHH@Z@4HA 0000000140028e40 f   Tilemap.obj
 0002:00017ea0       ?dtor$1@?0???0?$basic_ifstream@DU?$char_traits@D@std@@@std@@QEAA@PEBDHH@Z@4HA 0000000140028ea0 f   Tilemap.obj
 0002:00017ee0       ?dtor$2@?0???0?$basic_ifstream@DU?$char_traits@D@std@@@std@@QEAA@PEBDHH@Z@4HA 0000000140028ee0 f   Tilemap.obj
 0002:00017f20       ?dtor$0@?0??_Orphan_range_locked@?$vector@VObj@@V?$allocator@VObj@@@std@@@std@@AEBAXPEAVObj@@0@Z@4HA 0000000140028f20 f   Tilemap.obj
 0002:00017f50       ?dtor$0@?0??loadMap@Tilemap@@QEAAXPEBDPEAUSDL_Renderer@@@Z@4HA 0000000140028f50 f   Tilemap.obj
 0002:00017f80       ?dtor$0@?0??open@?$basic_filebuf@DU?$char_traits@D@std@@@std@@QEAAPEAV12@PEBDHH@Z@4HA 0000000140028f80 f   Tilemap.obj
 0002:00017fb0       ?dtor$0@?0??uflow@?$basic_filebuf@DU?$char_traits@D@std@@@std@@MEAAHXZ@4HA 0000000140028fb0 f   Tilemap.obj
 0002:00017fe0       ?dtor$0@?0??_Facet_Register@std@@YAXPEAV_Facet_base@1@@Z@4HA 0000000140028fe0 f   msvcprtd:locale0_implib.obj
 0002:00018000       ?filt$0@?0??__scrt_common_main_seh@@YAHXZ@4HA 0000000140029000 f   MSVCRTD:exe_main.obj
 0002:00018040       __scrt_is_nonwritable_in_current_image$filt$0 0000000140029040 f   MSVCRTD:utility.obj
 0002:00018090       ?filt$0@?0??notify_debugger@@YAXAEBUtagEXCEPTION_VISUALCPP_DEBUG_INFO@@@Z@4HA 0000000140029090 f   MSVCRTD:error.obj
 0002:000190f0       ??__F_Fac_tidy_reg@std@@YAXXZ 000000014002a0f0 f   msvcprtd:locale0_implib.obj
 0003:00000110       ?pre_cpp_initializer@@3P6AXXZEA 000000014002c110     MSVCRTD:exe_main.obj
 0003:00000220       ?_Fac_tidy_reg$initializer$@std@@3P6AXXZEA 000000014002c220     msvcprtd:locale0_implib.obj
 0003:00000330       ?gW$initializer$@@3P6AXXZEA 000000014002c330     Game.obj
 0003:00000340       ?map$initializer$@@3P6AXXZEA 000000014002c340     Gameworld.obj
 0003:00000348       ?player$initializer$@@3P6AXXZEA 000000014002c348     Gameworld.obj
 0003:00000678       ?pre_c_initializer@@3P6AHXZEA 000000014002c678     MSVCRTD:exe_main.obj
 0003:00000788       ?post_pgo_initializer@@3P6AHXZEA 000000014002c788     MSVCRTD:exe_main.obj
 0003:00000df0       ??$?6U?$char_traits@D@std@@@std@@YAAEAV?$basic_ostream@DU?$char_traits@D@std@@@0@AEAV10@PEBD@Z$rtcName$0 000000014002cdf0     Endscreen.obj
 0003:00000e00       ??$?6U?$char_traits@D@std@@@std@@YAAEAV?$basic_ostream@DU?$char_traits@D@std@@@0@AEAV10@PEBD@Z$rtcVarDesc 000000014002ce00     Endscreen.obj
 0003:00000e40       ??$?6U?$char_traits@D@std@@@std@@YAAEAV?$basic_ostream@DU?$char_traits@D@std@@@0@AEAV10@PEBD@Z$rtcFrameData 000000014002ce40     Endscreen.obj
 0003:00000ed0       ?_Orphan_all_locked_v3@_Container_base12@std@@AEAAXXZ$rtcName$0 000000014002ced0     Game.obj
 0003:00000ee0       ?_Orphan_all_locked_v3@_Container_base12@std@@AEAAXXZ$rtcVarDesc 000000014002cee0     Game.obj
 0003:00000f20       ?_Orphan_all_locked_v3@_Container_base12@std@@AEAAXXZ$rtcFrameData 000000014002cf20     Game.obj
 0003:00000f50       ?_Swap_proxy_and_iterators_locked@_Container_base12@std@@AEAAXAEAU12@@Z$rtcName$0 000000014002cf50     Game.obj
 0003:00000f60       ?_Swap_proxy_and_iterators_locked@_Container_base12@std@@AEAAXAEAU12@@Z$rtcVarDesc 000000014002cf60     Game.obj
 0003:00000fa0       ?_Swap_proxy_and_iterators_locked@_Container_base12@std@@AEAAXAEAU12@@Z$rtcFrameData 000000014002cfa0     Game.obj
 0003:00000fd0       ??1?$basic_string@DU?$char_traits@D@std@@V?$allocator@D@2@@std@@QEAA@XZ$rtcName$0 000000014002cfd0     Game.obj
 0003:00000fe0       ??1?$basic_string@DU?$char_traits@D@std@@V?$allocator@D@2@@std@@QEAA@XZ$rtcVarDesc 000000014002cfe0     Game.obj
 0003:00001020       ??1?$basic_string@DU?$char_traits@D@std@@V?$allocator@D@2@@std@@QEAA@XZ$rtcFrameData 000000014002d020     Game.obj
 0003:00001050       ?max_size@?$basic_string@DU?$char_traits@D@std@@V?$allocator@D@2@@std@@QEBA_KXZ$rtcName$0 000000014002d050     Game.obj
 0003:00001060       ?max_size@?$basic_string@DU?$char_traits@D@std@@V?$allocator@D@2@@std@@QEBA_KXZ$rtcVarDesc 000000014002d060     Game.obj
 0003:000010a0       ?max_size@?$basic_string@DU?$char_traits@D@std@@V?$allocator@D@2@@std@@QEBA_KXZ$rtcFrameData 000000014002d0a0     Game.obj
 0003:000010d0       ?_Calculate_growth@?$basic_string@DU?$char_traits@D@std@@V?$allocator@D@2@@std@@CA_K_K00@Z$rtcName$0 000000014002d0d0     Game.obj
 0003:000010e0       ?_Calculate_growth@?$basic_string@DU?$char_traits@D@std@@V?$allocator@D@2@@std@@CA_K_K00@Z$rtcVarDesc 000000014002d0e0     Game.obj
 0003:00001120       ?_Calculate_growth@?$basic_string@DU?$char_traits@D@std@@V?$allocator@D@2@@std@@CA_K_K00@Z$rtcFrameData 000000014002d120     Game.obj
 0003:00001150       ??$_Integral_to_string@DH@std@@YA?AV?$basic_string@DU?$char_traits@D@std@@V?$allocator@D@2@@0@H@Z$rtcName$0 000000014002d150     Game.obj
 0003:00001160       ??$_Integral_to_string@DH@std@@YA?AV?$basic_string@DU?$char_traits@D@std@@V?$allocator@D@2@@0@H@Z$rtcVarDesc 000000014002d160     Game.obj
 0003:000011a0       ??$_Integral_to_string@DH@std@@YA?AV?$basic_string@DU?$char_traits@D@std@@V?$allocator@D@2@@0@H@Z$rtcFrameData 000000014002d1a0     Game.obj
 0003:000011d0       ?init@Game@@QEAAXXZ$rtcName$0 000000014002d1d0     Game.obj
 0003:000011e0       ?init@Game@@QEAAXXZ$rtcVarDesc 000000014002d1e0     Game.obj
 0003:00001220       ?init@Game@@QEAAXXZ$rtcFrameData 000000014002d220     Game.obj
 0003:00001250       ?loop@Game@@QEAAXXZ$rtcName$0 000000014002d250     Game.obj
 0003:00001260       ?loop@Game@@QEAAXXZ$rtcVarDesc 000000014002d260     Game.obj
 0003:000012a0       ?loop@Game@@QEAAXXZ$rtcFrameData 000000014002d2a0     Game.obj
 0003:000012d0       ?update@Game@@QEAAXXZ$rtcName$0 000000014002d2d0     Game.obj
 0003:000012e0       ?update@Game@@QEAAXXZ$rtcVarDesc 000000014002d2e0     Game.obj
 0003:00001320       ?update@Game@@QEAAXXZ$rtcFrameData 000000014002d320     Game.obj
 0003:00001350       ?render@Game@@QEAAXXZ$rtcName$0 000000014002d350     Game.obj
 0003:00001360       ?render@Game@@QEAAXXZ$rtcVarDesc 000000014002d360     Game.obj
 0003:000013a0       ?render@Game@@QEAAXXZ$rtcFrameData 000000014002d3a0     Game.obj
 0003:000013d0       ??$_Reallocate_grow_by@V<lambda_1>@?1??insert@?$basic_string@DU?$char_traits@D@std@@V?$allocator@D@2@@std@@QEAAAEAV34@_KQEBD0@Z@_KPEBD_K@?$basic_string@DU?$char_traits@D@std@@V?$allocator@D@2@@std@@AEAAAEAV01@_KV<lambda_1>@?1??insert@01@QEAAAEAV01@0QEBD0@Z@_KPEBD3@Z$rtcName$0 000000014002d3d0     Game.obj
 0003:000013e0       ??$_Reallocate_grow_by@V<lambda_1>@?1??insert@?$basic_string@DU?$char_traits@D@std@@V?$allocator@D@2@@std@@QEAAAEAV34@_KQEBD0@Z@_KPEBD_K@?$basic_string@DU?$char_traits@D@std@@V?$allocator@D@2@@std@@AEAAAEAV01@_KV<lambda_1>@?1??insert@01@QEAAAEAV01@0QEBD0@Z@_KPEBD3@Z$rtcVarDesc 000000014002d3e0     Game.obj
 0003:00001420       ??$_Reallocate_grow_by@V<lambda_1>@?1??insert@?$basic_string@DU?$char_traits@D@std@@V?$allocator@D@2@@std@@QEAAAEAV34@_KQEBD0@Z@_KPEBD_K@?$basic_string@DU?$char_traits@D@std@@V?$allocator@D@2@@std@@AEAAAEAV01@_KV<lambda_1>@?1??insert@01@QEAAAEAV01@0QEBD0@Z@_KPEBD3@Z$rtcFrameData 000000014002d420     Game.obj
 0003:00001450       ??$_Construct@$00PEAD@?$basic_string@DU?$char_traits@D@std@@V?$allocator@D@2@@std@@AEAAXQEAD_K@Z$rtcName$0 000000014002d450     Game.obj
 0003:00001458       ??$_Construct@$00PEAD@?$basic_string@DU?$char_traits@D@std@@V?$allocator@D@2@@std@@AEAAXQEAD_K@Z$rtcName$1 000000014002d458     Game.obj
 0003:00001460       ??$_Construct@$00PEAD@?$basic_string@DU?$char_traits@D@std@@V?$allocator@D@2@@std@@AEAAXQEAD_K@Z$rtcName$2 000000014002d460     Game.obj
 0003:00001470       ??$_Construct@$00PEAD@?$basic_string@DU?$char_traits@D@std@@V?$allocator@D@2@@std@@AEAAXQEAD_K@Z$rtcVarDesc 000000014002d470     Game.obj
 0003:00001530       ??$_Construct@$00PEAD@?$basic_string@DU?$char_traits@D@std@@V?$allocator@D@2@@std@@AEAAXQEAD_K@Z$rtcFrameData 000000014002d530     Game.obj
 0003:00001b70       ??$_Construct@$00PEBD@?$basic_string@DU?$char_traits@D@std@@V?$allocator@D@2@@std@@AEAAXQEBD_K@Z$rtcName$0 000000014002db70     Gameworld.obj
 0003:00001b78       ??$_Construct@$00PEBD@?$basic_string@DU?$char_traits@D@std@@V?$allocator@D@2@@std@@AEAAXQEBD_K@Z$rtcName$1 000000014002db78     Gameworld.obj
 0003:00001b80       ??$_Construct@$00PEBD@?$basic_string@DU?$char_traits@D@std@@V?$allocator@D@2@@std@@AEAAXQEBD_K@Z$rtcName$2 000000014002db80     Gameworld.obj
 0003:00001b90       ??$_Construct@$00PEBD@?$basic_string@DU?$char_traits@D@std@@V?$allocator@D@2@@std@@AEAAXQEBD_K@Z$rtcVarDesc 000000014002db90     Gameworld.obj
 0003:00001c50       ??$_Construct@$00PEBD@?$basic_string@DU?$char_traits@D@std@@V?$allocator@D@2@@std@@AEAAXQEBD_K@Z$rtcFrameData 000000014002dc50     Gameworld.obj
 0003:00001cc0       ?renderer@Obj@@QEAAXPEAUSDL_Renderer@@@Z$rtcName$0 000000014002dcc0     Obj.obj
 0003:00001ccc       ?renderer@Obj@@QEAAXPEAUSDL_Renderer@@@Z$rtcName$1 000000014002dccc     Obj.obj
 0003:00001ce0       ?renderer@Obj@@QEAAXPEAUSDL_Renderer@@@Z$rtcVarDesc 000000014002dce0     Obj.obj
 0003:00001d60       ?renderer@Obj@@QEAAXPEAUSDL_Renderer@@@Z$rtcFrameData 000000014002dd60     Obj.obj
 0003:00001dd0       ?loadMap@Tilemap@@QEAAXPEBDPEAUSDL_Renderer@@@Z$rtcName$0 000000014002ddd0     Tilemap.obj
 0003:00001de0       ?loadMap@Tilemap@@QEAAXPEBDPEAUSDL_Renderer@@@Z$rtcName$1 000000014002dde0     Tilemap.obj
 0003:00001de8       ?loadMap@Tilemap@@QEAAXPEBDPEAUSDL_Renderer@@@Z$rtcName$2 000000014002dde8     Tilemap.obj
 0003:00001df0       ?loadMap@Tilemap@@QEAAXPEBDPEAUSDL_Renderer@@@Z$rtcName$3 000000014002ddf0     Tilemap.obj
 0003:00001df8       ?loadMap@Tilemap@@QEAAXPEBDPEAUSDL_Renderer@@@Z$rtcName$4 000000014002ddf8     Tilemap.obj
 0003:00001e00       ?loadMap@Tilemap@@QEAAXPEBDPEAUSDL_Renderer@@@Z$rtcName$5 000000014002de00     Tilemap.obj
 0003:00001e08       ?loadMap@Tilemap@@QEAAXPEBDPEAUSDL_Renderer@@@Z$rtcName$6 000000014002de08     Tilemap.obj
 0003:00001e10       ?loadMap@Tilemap@@QEAAXPEBDPEAUSDL_Renderer@@@Z$rtcVarDesc 000000014002de10     Tilemap.obj
 0003:00001fd0       ?loadMap@Tilemap@@QEAAXPEBDPEAUSDL_Renderer@@@Z$rtcFrameData 000000014002dfd0     Tilemap.obj
 0003:00002050       ?drawTiles@Tilemap@@QEAAXVObj@@PEAUSDL_Renderer@@@Z$rtcName$0 000000014002e050     Tilemap.obj
 0003:0000205c       ?drawTiles@Tilemap@@QEAAXVObj@@PEAUSDL_Renderer@@@Z$rtcName$1 000000014002e05c     Tilemap.obj
 0003:00002070       ?drawTiles@Tilemap@@QEAAXVObj@@PEAUSDL_Renderer@@@Z$rtcVarDesc 000000014002e070     Tilemap.obj
 0003:000020f0       ?drawTiles@Tilemap@@QEAAXVObj@@PEAUSDL_Renderer@@@Z$rtcFrameData 000000014002e0f0     Tilemap.obj
 0003:00002130       ?_Orphan_range_locked@?$vector@VObj@@V?$allocator@VObj@@@std@@@std@@AEBAXPEAVObj@@0@Z$rtcName$0 000000014002e130     Tilemap.obj
 0003:00002140       ?_Orphan_range_locked@?$vector@VObj@@V?$allocator@VObj@@@std@@@std@@AEBAXPEAVObj@@0@Z$rtcVarDesc 000000014002e140     Tilemap.obj
 0003:00002180       ?_Orphan_range_locked@?$vector@VObj@@V?$allocator@VObj@@@std@@@std@@AEBAXPEAVObj@@0@Z$rtcFrameData 000000014002e180     Tilemap.obj
 0003:000021b0       ?overflow@?$basic_filebuf@DU?$char_traits@D@std@@@std@@MEAAHH@Z$rtcName$0 000000014002e1b0     Tilemap.obj
 0003:000021b8       ?overflow@?$basic_filebuf@DU?$char_traits@D@std@@@std@@MEAAHH@Z$rtcName$1 000000014002e1b8     Tilemap.obj
 0003:000021bc       ?overflow@?$basic_filebuf@DU?$char_traits@D@std@@@std@@MEAAHH@Z$rtcName$2 000000014002e1bc     Tilemap.obj
 0003:000021c4       ?overflow@?$basic_filebuf@DU?$char_traits@D@std@@@std@@MEAAHH@Z$rtcName$3 000000014002e1c4     Tilemap.obj
 0003:000021d0       ?overflow@?$basic_filebuf@DU?$char_traits@D@std@@@std@@MEAAHH@Z$rtcVarDesc 000000014002e1d0     Tilemap.obj
 0003:000022d0       ?overflow@?$basic_filebuf@DU?$char_traits@D@std@@@std@@MEAAHH@Z$rtcFrameData 000000014002e2d0     Tilemap.obj
 0003:00002320       ?underflow@?$basic_filebuf@DU?$char_traits@D@std@@@std@@MEAAHXZ$rtcName$0 000000014002e320     Tilemap.obj
 0003:00002330       ?underflow@?$basic_filebuf@DU?$char_traits@D@std@@@std@@MEAAHXZ$rtcVarDesc 000000014002e330     Tilemap.obj
 0003:00002370       ?underflow@?$basic_filebuf@DU?$char_traits@D@std@@@std@@MEAAHXZ$rtcFrameData 000000014002e370     Tilemap.obj
 0003:000023a0       ?uflow@?$basic_filebuf@DU?$char_traits@D@std@@@std@@MEAAHXZ$rtcName$0 000000014002e3a0     Tilemap.obj
 0003:000023a4       ?uflow@?$basic_filebuf@DU?$char_traits@D@std@@@std@@MEAAHXZ$rtcName$1 000000014002e3a4     Tilemap.obj
 0003:000023ac       ?uflow@?$basic_filebuf@DU?$char_traits@D@std@@@std@@MEAAHXZ$rtcName$2 000000014002e3ac     Tilemap.obj
 0003:000023b4       ?uflow@?$basic_filebuf@DU?$char_traits@D@std@@@std@@MEAAHXZ$rtcName$3 000000014002e3b4     Tilemap.obj
 0003:000023b8       ?uflow@?$basic_filebuf@DU?$char_traits@D@std@@@std@@MEAAHXZ$rtcName$4 000000014002e3b8     Tilemap.obj
 0003:000023c0       ?uflow@?$basic_filebuf@DU?$char_traits@D@std@@@std@@MEAAHXZ$rtcVarDesc 000000014002e3c0     Tilemap.obj
 0003:00002500       ?uflow@?$basic_filebuf@DU?$char_traits@D@std@@@std@@MEAAHXZ$rtcFrameData 000000014002e500     Tilemap.obj
 0003:00002560       ?xsgetn@?$basic_filebuf@DU?$char_traits@D@std@@@std@@MEAA_JPEAD_J@Z$rtcName$0 000000014002e560     Tilemap.obj
 0003:00002570       ?xsgetn@?$basic_filebuf@DU?$char_traits@D@std@@@std@@MEAA_JPEAD_J@Z$rtcName$1 000000014002e570     Tilemap.obj
 0003:00002580       ?xsgetn@?$basic_filebuf@DU?$char_traits@D@std@@@std@@MEAA_JPEAD_J@Z$rtcVarDesc 000000014002e580     Tilemap.obj
 0003:00002600       ?xsgetn@?$basic_filebuf@DU?$char_traits@D@std@@@std@@MEAA_JPEAD_J@Z$rtcFrameData 000000014002e600     Tilemap.obj
 0003:00002640       ?seekoff@?$basic_filebuf@DU?$char_traits@D@std@@@std@@MEAA?AV?$fpos@U_Mbstatet@@@2@_JHH@Z$rtcName$0 000000014002e640     Tilemap.obj
 0003:00002650       ?seekoff@?$basic_filebuf@DU?$char_traits@D@std@@@std@@MEAA?AV?$fpos@U_Mbstatet@@@2@_JHH@Z$rtcVarDesc 000000014002e650     Tilemap.obj
 0003:00002690       ?seekoff@?$basic_filebuf@DU?$char_traits@D@std@@@std@@MEAA?AV?$fpos@U_Mbstatet@@@2@_JHH@Z$rtcFrameData 000000014002e690     Tilemap.obj
 0003:000026c0       ?seekpos@?$basic_filebuf@DU?$char_traits@D@std@@@std@@MEAA?AV?$fpos@U_Mbstatet@@@2@V32@H@Z$rtcName$0 000000014002e6c0     Tilemap.obj
 0003:000026d0       ?seekpos@?$basic_filebuf@DU?$char_traits@D@std@@@std@@MEAA?AV?$fpos@U_Mbstatet@@@2@V32@H@Z$rtcVarDesc 000000014002e6d0     Tilemap.obj
 0003:00002710       ?seekpos@?$basic_filebuf@DU?$char_traits@D@std@@@std@@MEAA?AV?$fpos@U_Mbstatet@@@2@V32@H@Z$rtcFrameData 000000014002e710     Tilemap.obj
 0003:00002740       ?_Init@?$basic_filebuf@DU?$char_traits@D@std@@@std@@IEAAXPEAU_iobuf@@W4_Initfl@12@@Z$rtcName$0 000000014002e740     Tilemap.obj
 0003:00002744       ?_Init@?$basic_filebuf@DU?$char_traits@D@std@@@std@@IEAAXPEAU_iobuf@@W4_Initfl@12@@Z$rtcName$1 000000014002e744     Tilemap.obj
 0003:00002748       ?_Init@?$basic_filebuf@DU?$char_traits@D@std@@@std@@IEAAXPEAU_iobuf@@W4_Initfl@12@@Z$rtcName$2 000000014002e748     Tilemap.obj
 0003:00002750       ?_Init@?$basic_filebuf@DU?$char_traits@D@std@@@std@@IEAAXPEAU_iobuf@@W4_Initfl@12@@Z$rtcVarDesc 000000014002e750     Tilemap.obj
 0003:00002810       ?_Init@?$basic_filebuf@DU?$char_traits@D@std@@@std@@IEAAXPEAU_iobuf@@W4_Initfl@12@@Z$rtcFrameData 000000014002e810     Tilemap.obj
 0003:00002850       ?_Endwrite@?$basic_filebuf@DU?$char_traits@D@std@@@std@@IEAA_NXZ$rtcName$0 000000014002e850     Tilemap.obj
 0003:00002858       ?_Endwrite@?$basic_filebuf@DU?$char_traits@D@std@@@std@@IEAA_NXZ$rtcName$1 000000014002e858     Tilemap.obj
 0003:00002860       ?_Endwrite@?$basic_filebuf@DU?$char_traits@D@std@@@std@@IEAA_NXZ$rtcVarDesc 000000014002e860     Tilemap.obj
 0003:000028e0       ?_Endwrite@?$basic_filebuf@DU?$char_traits@D@std@@@std@@IEAA_NXZ$rtcFrameData 000000014002e8e0     Tilemap.obj
 0003:00002910       ??$use_facet@V?$codecvt@DDU_Mbstatet@@@std@@@std@@YAAEBV?$codecvt@DDU_Mbstatet@@@0@AEBVlocale@0@@Z$rtcName$0 000000014002e910     Tilemap.obj
 0003:00002918       ??$use_facet@V?$codecvt@DDU_Mbstatet@@@std@@@std@@YAAEBV?$codecvt@DDU_Mbstatet@@@0@AEBVlocale@0@@Z$rtcName$1 000000014002e918     Tilemap.obj
 0003:00002920       ??$use_facet@V?$codecvt@DDU_Mbstatet@@@std@@@std@@YAAEBV?$codecvt@DDU_Mbstatet@@@0@AEBVlocale@0@@Z$rtcName$2 000000014002e920     Tilemap.obj
 0003:00002930       ??$use_facet@V?$codecvt@DDU_Mbstatet@@@std@@@std@@YAAEBV?$codecvt@DDU_Mbstatet@@@0@AEBVlocale@0@@Z$rtcVarDesc 000000014002e930     Tilemap.obj
 0003:000029f0       ??$use_facet@V?$codecvt@DDU_Mbstatet@@@std@@@std@@YAAEBV?$codecvt@DDU_Mbstatet@@@0@AEBVlocale@0@@Z$rtcFrameData 000000014002e9f0     Tilemap.obj
 0003:00002a30       ??$_Reallocate_grow_by@V<lambda_1>@?1??push_back@?$basic_string@DU?$char_traits@D@std@@V?$allocator@D@2@@std@@QEAAXD@Z@D@?$basic_string@DU?$char_traits@D@std@@V?$allocator@D@2@@std@@AEAAAEAV01@_KV<lambda_1>@?1??push_back@01@QEAAXD@Z@D@Z$rtcName$0 000000014002ea30     Tilemap.obj
 0003:00002a40       ??$_Reallocate_grow_by@V<lambda_1>@?1??push_back@?$basic_string@DU?$char_traits@D@std@@V?$allocator@D@2@@std@@QEAAXD@Z@D@?$basic_string@DU?$char_traits@D@std@@V?$allocator@D@2@@std@@AEAAAEAV01@_KV<lambda_1>@?1??push_back@01@QEAAXD@Z@D@Z$rtcVarDesc 000000014002ea40     Tilemap.obj
 0003:00002a80       ??$_Reallocate_grow_by@V<lambda_1>@?1??push_back@?$basic_string@DU?$char_traits@D@std@@V?$allocator@D@2@@std@@QEAAXD@Z@D@?$basic_string@DU?$char_traits@D@std@@V?$allocator@D@2@@std@@AEAAAEAV01@_KV<lambda_1>@?1??push_back@01@QEAAXD@Z@D@Z$rtcFrameData 000000014002ea80     Tilemap.obj
 0003:00002ab0       ??$_Uninitialized_move@PEAVObj@@V?$allocator@VObj@@@std@@@std@@YAPEAVObj@@QEAV1@0PEAV1@AEAV?$allocator@VObj@@@0@@Z$rtcName$0 000000014002eab0     Tilemap.obj
 0003:00002ac0       ??$_Uninitialized_move@PEAVObj@@V?$allocator@VObj@@@std@@@std@@YAPEAVObj@@QEAV1@0PEAV1@AEAV?$allocator@VObj@@@0@@Z$rtcVarDesc 000000014002eac0     Tilemap.obj
 0003:00002b00       ??$_Uninitialized_move@PEAVObj@@V?$allocator@VObj@@@std@@@std@@YAPEAVObj@@QEAV1@0PEAV1@AEAV?$allocator@VObj@@@0@@Z$rtcFrameData 000000014002eb00     Tilemap.obj
 0003:00003060       SDL_main$rtcName$0         000000014002f060     WizardTime.obj
 0003:00003070       SDL_main$rtcVarDesc        000000014002f070     WizardTime.obj
 0003:000030b0       SDL_main$rtcFrameData      000000014002f0b0     WizardTime.obj
 0003:00003150       ?_RTC_ErrorMessages@@3QBQEBDB 000000014002f150     MSVCRTD:error.obj
 0003:00003180       ?_RTC_NoFalsePositives@@3QBHB 000000014002f180     MSVCRTD:error.obj
 0003:00003198       ?stack_premsg@@3QBDB       000000014002f198     MSVCRTD:error.obj
 0003:000031b8       ?stack_postmsg@@3QBDB      000000014002f1b8     MSVCRTD:error.obj
 0003:000031d0       ?uninit_premsg@@3QBDB      000000014002f1d0     MSVCRTD:error.obj
 0003:000031e0       ?uninit_postmsg@@3QBDB     000000014002f1e0     MSVCRTD:error.obj
 0003:00003858       ?_RTC_errlist@@3QBQEBDB    000000014002f858     MSVCRTD:userapi.obj
 0003:00003960       GS_ExceptionPointers       000000014002f960     MSVCRTD:gs_report.obj
 0003:00003978       ?mspdbName@@3QB_WB         000000014002f978     MSVCRTD:pdblkup.obj
 0003:000039a8       ?debugCrtFileName@@3QB_WB  000000014002f9a8     MSVCRTD:pdblkup.obj
 0003:00003b40       ?dllExt@?1??GetPdbDllPathFromFilePath@@YAHPEB_WPEA_W_K@Z@4QB_WB 000000014002fb40     MSVCRTD:pdblkup.obj
 0003:00003b50       ?mspdbFilename@?1??GetPdbDllPathFromFilePath@@YAHPEB_WPEA_W_K@Z@4QB_WB 000000014002fb50     MSVCRTD:pdblkup.obj
 0003:00004dc8       _RTC_InitBase.rtc$IMZ      0000000140030dc8     Endscreen.obj
 0003:00004dd8       _RTC_InitBase.rtc$IMZ      0000000140030dd8     Game.obj
 0003:00004de8       _RTC_InitBase.rtc$IMZ      0000000140030de8     Gameworld.obj
 0003:00004df8       _RTC_InitBase.rtc$IMZ      0000000140030df8     Obj.obj
 0003:00004e08       _RTC_InitBase.rtc$IMZ      0000000140030e08     Splashscreen.obj
 0003:00004e18       _RTC_InitBase.rtc$IMZ      0000000140030e18     Tilemap.obj
 0003:00004e28       _RTC_InitBase.rtc$IMZ      0000000140030e28     Timelimit.obj
 0003:00004e38       _RTC_InitBase.rtc$IMZ      0000000140030e38     UI.obj
 0003:00004e48       _RTC_InitBase.rtc$IMZ      0000000140030e48     V2D.obj
 0003:00004e58       _RTC_InitBase.rtc$IMZ      0000000140030e58     WizardTime.obj
 0003:00005198       _RTC_Shutdown.rtc$TMZ      0000000140031198     Endscreen.obj
 0003:000051a8       _RTC_Shutdown.rtc$TMZ      00000001400311a8     Game.obj
 0003:000051b8       _RTC_Shutdown.rtc$TMZ      00000001400311b8     Gameworld.obj
 0003:000051c8       _RTC_Shutdown.rtc$TMZ      00000001400311c8     Obj.obj
 0003:000051d8       _RTC_Shutdown.rtc$TMZ      00000001400311d8     Splashscreen.obj
 0003:000051e8       _RTC_Shutdown.rtc$TMZ      00000001400311e8     Tilemap.obj
 0003:000051f8       _RTC_Shutdown.rtc$TMZ      00000001400311f8     Timelimit.obj
 0003:00005208       _RTC_Shutdown.rtc$TMZ      0000000140031208     UI.obj
 0003:00005218       _RTC_Shutdown.rtc$TMZ      0000000140031218     V2D.obj
 0003:00005228       _RTC_Shutdown.rtc$TMZ      0000000140031228     WizardTime.obj
 0003:00005458       $unwind$?__empty_global_delete@@YAXPEAX@Z 0000000140031458     Endscreen.obj
 0003:0000546c       $unwind$?__empty_global_delete@@YAXPEAX_K@Z 000000014003146c     Endscreen.obj
 0003:00005480       $unwind$?length@?$_Narrow_char_traits@DH@std@@SA_KQEBD@Z 0000000140031480     Endscreen.obj
 0003:00005494       $unwind$?eq_int_type@?$_Narrow_char_traits@DH@std@@SA_NAEBH0@Z 0000000140031494     Endscreen.obj
 0003:000054a8       $unwind$?eof@?$_Narrow_char_traits@DH@std@@SAHXZ 00000001400314a8     Endscreen.obj
 0003:000054bc       $unwind$?__autoclassinit2@UI@@QEAAX_K@Z 00000001400314bc     Endscreen.obj
 0003:000054d0       $unwind$??0Endscreen@@QEAA@PEAUSDL_Renderer@@@Z 00000001400314d0     Endscreen.obj
 0003:000054ea       $cppxdata$??0Endscreen@@QEAA@PEAUSDL_Renderer@@@Z 00000001400314ea     Endscreen.obj
 0003:000054f3       $stateUnwindMap$??0Endscreen@@QEAA@PEAUSDL_Renderer@@@Z 00000001400314f3     Endscreen.obj
 0003:000054ff       $ip2state$??0Endscreen@@QEAA@PEAUSDL_Renderer@@@Z 00000001400314ff     Endscreen.obj
 0003:0000550c       $unwind$?dtor$0@?0???0Endscreen@@QEAA@PEAUSDL_Renderer@@@Z@4HA 000000014003150c     Endscreen.obj
 0003:0000551c       $unwind$?dtor$1@?0???0Endscreen@@QEAA@PEAUSDL_Renderer@@@Z@4HA 000000014003151c     Endscreen.obj
 0003:0000552c       $unwind$??$?6U?$char_traits@D@std@@@std@@YAAEAV?$basic_ostream@DU?$char_traits@D@std@@@0@AEAV10@PEBD@Z 000000014003152c     Endscreen.obj
 0003:0000554a       $cppxdata$??$?6U?$char_traits@D@std@@@std@@YAAEAV?$basic_ostream@DU?$char_traits@D@std@@@0@AEAV10@PEBD@Z 000000014003154a     Endscreen.obj
 0003:00005558       $stateUnwindMap$??$?6U?$char_traits@D@std@@@std@@YAAEAV?$basic_ostream@DU?$char_traits@D@std@@@0@AEAV10@PEBD@Z 0000000140031558     Endscreen.obj
 0003:00005560       $tryMap$??$?6U?$char_traits@D@std@@@std@@YAAEAV?$basic_ostream@DU?$char_traits@D@std@@@0@AEAV10@PEBD@Z 0000000140031560     Endscreen.obj
 0003:00005568       $handlerMap$??$?6U?$char_traits@D@std@@@std@@YAAEAV?$basic_ostream@DU?$char_traits@D@std@@@0@AEAV10@PEBD@Z 0000000140031568     Endscreen.obj
 0003:0000556f       $ip2state$??$?6U?$char_traits@D@std@@@std@@YAAEAV?$basic_ostream@DU?$char_traits@D@std@@@0@AEAV10@PEBD@Z 000000014003156f     Endscreen.obj
 0003:00005580       $unwind$?dtor$0@?0???$?6U?$char_traits@D@std@@@std@@YAAEAV?$basic_ostream@DU?$char_traits@D@std@@@0@AEAV10@PEBD@Z@4HA 0000000140031580     Endscreen.obj
 0003:00005590       $unwind$?catch$1@?0???$?6U?$char_traits@D@std@@@std@@YAAEAV?$basic_ostream@DU?$char_traits@D@std@@@0@AEAV10@PEBD@Z@4HA 0000000140031590     Endscreen.obj
 0003:000055a0       $unwind$??0_Sentry_base@?$basic_ostream@DU?$char_traits@D@std@@@std@@QEAA@AEAV12@@Z 00000001400315a0     Endscreen.obj
 0003:000055b4       $unwind$??1_Sentry_base@?$basic_ostream@DU?$char_traits@D@std@@@std@@QEAA@XZ 00000001400315b4     Endscreen.obj
 0003:000055ce       $cppxdata$??1_Sentry_base@?$basic_ostream@DU?$char_traits@D@std@@@std@@QEAA@XZ 00000001400315ce     Endscreen.obj
 0003:000055d3       $ip2state$??1_Sentry_base@?$basic_ostream@DU?$char_traits@D@std@@@std@@QEAA@XZ 00000001400315d3     Endscreen.obj
 0003:000055d8       $unwind$??0sentry@?$basic_ostream@DU?$char_traits@D@std@@@std@@QEAA@AEAV12@@Z 00000001400315d8     Endscreen.obj
 0003:000055f2       $cppxdata$??0sentry@?$basic_ostream@DU?$char_traits@D@std@@@std@@QEAA@AEAV12@@Z 00000001400315f2     Endscreen.obj
 0003:000055fb       $stateUnwindMap$??0sentry@?$basic_ostream@DU?$char_traits@D@std@@@std@@QEAA@AEAV12@@Z 00000001400315fb     Endscreen.obj
 0003:00005601       $ip2state$??0sentry@?$basic_ostream@DU?$char_traits@D@std@@@std@@QEAA@AEAV12@@Z 0000000140031601     Endscreen.obj
 0003:0000560c       $unwind$?dtor$0@?0???0sentry@?$basic_ostream@DU?$char_traits@D@std@@@std@@QEAA@AEAV12@@Z@4HA 000000014003160c     Endscreen.obj
 0003:0000561c       $unwind$??1sentry@?$basic_ostream@DU?$char_traits@D@std@@@std@@QEAA@XZ 000000014003161c     Endscreen.obj
 0003:00005630       $unwind$??Bsentry@?$basic_ostream@DU?$char_traits@D@std@@@std@@QEBA_NXZ 0000000140031630     Endscreen.obj
 0003:00005644       $unwind$??2@YAPEAX_KPEAX@Z 0000000140031644     Game.obj
 0003:00005658       $unwind$??0exception@std@@QEAA@QEBDH@Z 0000000140031658     Game.obj
 0003:0000566c       $unwind$??0exception@std@@QEAA@AEBV01@@Z 000000014003166c     Game.obj
 0003:00005680       $unwind$??1exception@std@@UEAA@XZ 0000000140031680     Game.obj
 0003:00005694       $unwind$?what@exception@std@@UEBAPEBDXZ 0000000140031694     Game.obj
 0003:000056a8       $unwind$??_Gexception@std@@UEAAPEAXI@Z 00000001400316a8     Game.obj
 0003:000056bc       $unwind$??0bad_alloc@std@@AEAA@QEBD@Z 00000001400316bc     Game.obj
 0003:000056d0       $unwind$??1bad_alloc@std@@UEAA@XZ 00000001400316d0     Game.obj
 0003:000056e4       $unwind$??0bad_alloc@std@@QEAA@AEBV01@@Z 00000001400316e4     Game.obj
 0003:000056f8       $unwind$??_Gbad_alloc@std@@UEAAPEAXI@Z 00000001400316f8     Game.obj
 0003:0000570c       $unwind$??0bad_array_new_length@std@@QEAA@XZ 000000014003170c     Game.obj
 0003:00005720       $unwind$??1bad_array_new_length@std@@UEAA@XZ 0000000140031720     Game.obj
 0003:00005734       $unwind$??0bad_array_new_length@std@@QEAA@AEBV01@@Z 0000000140031734     Game.obj
 0003:00005748       $unwind$??_Gbad_array_new_length@std@@UEAAPEAXI@Z 0000000140031748     Game.obj
 0003:0000575c       $unwind$?_Throw_bad_array_new_length@std@@YAXXZ 000000014003175c     Game.obj
 0003:00005770       $unwind$?max@?$numeric_limits@_J@std@@SA_JXZ 0000000140031770     Game.obj
 0003:00005784       $unwind$?_Allocate@_Default_allocate_traits@std@@SAPEAX_K@Z 0000000140031784     Game.obj
 0003:00005798       $unwind$?_Adjust_manually_vector_aligned@std@@YAXAEAPEAXAEA_K@Z 0000000140031798     Game.obj
 0003:000057ac       $unwind$??0_Container_proxy@std@@QEAA@PEAU_Container_base12@1@@Z 00000001400317ac     Game.obj
 0003:000057c0       $unwind$??0_Container_base12@std@@QEAA@XZ 00000001400317c0     Game.obj
 0003:000057d4       $unwind$?_Orphan_all@_Container_base12@std@@QEAAXXZ 00000001400317d4     Game.obj
 0003:000057e8       $unwind$?_Swap_proxy_and_iterators@_Container_base12@std@@QEAAXAEAU12@@Z 00000001400317e8     Game.obj
 0003:000057fc       $unwind$?_Orphan_all_unlocked_v3@_Container_base12@std@@AEAAXXZ 00000001400317fc     Game.obj
 0003:00005810       $unwind$?_Swap_proxy_and_iterators_unlocked@_Container_base12@std@@AEAAXAEAU12@@Z 0000000140031810     Game.obj
 0003:00005824       $unwind$?_Orphan_all_locked_v3@_Container_base12@std@@AEAAXXZ 0000000140031824     Game.obj
 0003:00005840       $unwind$?_Swap_proxy_and_iterators_locked@_Container_base12@std@@AEAAXAEAU12@@Z 0000000140031840     Game.obj
 0003:0000585c       $unwind$??$exchange@PEAU_Iterator_base12@std@@$$T@std@@YAPEAU_Iterator_base12@0@AEAPEAU10@$$QEA$$T@Z 000000014003185c     Game.obj
 0003:00005870       $unwind$?_Release@_Basic_container_proxy_ptr12@std@@QEAAXXZ 0000000140031870     Game.obj
 0003:00005884       $unwind$??0_Basic_container_proxy_ptr12@std@@IEAA@XZ 0000000140031884     Game.obj
 0003:00005898       $unwind$??$addressof@U_Container_base12@std@@@std@@YAPEAU_Container_base12@0@AEAU10@@Z 0000000140031898     Game.obj
 0003:000058ac       $unwind$??$_Construct_in_place@U_Container_proxy@std@@PEAU_Container_base12@2@@std@@YAXAEAU_Container_proxy@0@$$QEAPEAU_Container_base12@0@@Z 00000001400318ac     Game.obj
 0003:000058c0       $unwind$?copy@?$_Char_traits@DH@std@@SAPEADQEADQEBD_K@Z 00000001400318c0     Game.obj
 0003:000058d4       $unwind$?move@?$_Char_traits@DH@std@@SAPEADQEADQEBD_K@Z 00000001400318d4     Game.obj
 0003:000058e8       $unwind$?assign@?$_Narrow_char_traits@DH@std@@SAXAEADAEBD@Z 00000001400318e8     Game.obj
 0003:000058fc       $unwind$?_Xlen_string@std@@YAXXZ 00000001400318fc     Game.obj
 0003:00005910       $unwind$??0?$allocator@D@std@@QEAA@XZ 0000000140031910     Game.obj
 0003:00005924       $unwind$?deallocate@?$allocator@D@std@@QEAAXQEAD_K@Z 0000000140031924     Game.obj
 0003:00005938       $unwind$?allocate@?$allocator@D@std@@QEAAPEAD_K@Z 0000000140031938     Game.obj
 0003:0000594c       $unwind$?max_size@?$_Default_allocator_traits@V?$allocator@D@std@@@std@@SA_KAEBV?$allocator@D@2@@Z 000000014003194c     Game.obj
 0003:00005960       $unwind$??0?$_String_val@U?$_Simple_types@D@std@@@std@@QEAA@XZ 0000000140031960     Game.obj
 0003:00005974       $unwind$?_Myptr@?$_String_val@U?$_Simple_types@D@std@@@std@@QEAAPEADXZ 0000000140031974     Game.obj
 0003:00005988       $unwind$?_Myptr@?$_String_val@U?$_Simple_types@D@std@@@std@@QEBAPEBDXZ 0000000140031988     Game.obj
 0003:0000599c       $unwind$?_Large_string_engaged@?$_String_val@U?$_Simple_types@D@std@@@std@@QEBA_NXZ 000000014003199c     Game.obj
 0003:000059b0       $unwind$?_Activate_SSO_buffer@?$_String_val@U?$_Simple_types@D@std@@@std@@QEAAXXZ 00000001400319b0     Game.obj
 0003:000059c4       $unwind$?_Check_offset@?$_String_val@U?$_Simple_types@D@std@@@std@@QEBAX_K@Z 00000001400319c4     Game.obj
 0003:000059d8       $unwind$?_Xran@?$_String_val@U?$_Simple_types@D@std@@@std@@SAXXZ 00000001400319d8     Game.obj
 0003:000059ec       $unwind$??0_Bxty@?$_String_val@U?$_Simple_types@D@std@@@std@@QEAA@XZ 00000001400319ec     Game.obj
 0003:00005a00       $unwind$??1_Bxty@?$_String_val@U?$_Simple_types@D@std@@@std@@QEAA@XZ 0000000140031a00     Game.obj
 0003:00005a14       $unwind$??1?$_String_val@U?$_Simple_types@D@std@@@std@@QEAA@XZ 0000000140031a14     Game.obj
 0003:00005a28       $unwind$?_Start_element_lifetimes@?$basic_string@DU?$char_traits@D@std@@V?$allocator@D@2@@std@@CAXQEAD_K@Z 0000000140031a28     Game.obj
 0003:00005a3c       $unwind$??0?$basic_string@DU?$char_traits@D@std@@V?$allocator@D@2@@std@@QEAA@$$QEAV01@@Z 0000000140031a3c     Game.obj
 0003:00005a56       $cppxdata$??0?$basic_string@DU?$char_traits@D@std@@V?$allocator@D@2@@std@@QEAA@$$QEAV01@@Z 0000000140031a56     Game.obj
 0003:00005a5b       $ip2state$??0?$basic_string@DU?$char_traits@D@std@@V?$allocator@D@2@@std@@QEAA@$$QEAV01@@Z 0000000140031a5b     Game.obj
 0003:00005a60       $unwind$?_Memcpy_val_from@?$basic_string@DU?$char_traits@D@std@@V?$allocator@D@2@@std@@AEAAXAEBV12@@Z 0000000140031a60     Game.obj
 0003:00005a74       $unwind$?_Take_contents@?$basic_string@DU?$char_traits@D@std@@V?$allocator@D@2@@std@@AEAAXAEAV12@@Z 0000000140031a74     Game.obj
 0003:00005a8e       $cppxdata$?_Take_contents@?$basic_string@DU?$char_traits@D@std@@V?$allocator@D@2@@std@@AEAAXAEAV12@@Z 0000000140031a8e     Game.obj
 0003:00005a93       $ip2state$?_Take_contents@?$basic_string@DU?$char_traits@D@std@@V?$allocator@D@2@@std@@AEAAXAEAV12@@Z 0000000140031a93     Game.obj
 0003:00005a98       $unwind$??1?$basic_string@DU?$char_traits@D@std@@V?$allocator@D@2@@std@@QEAA@XZ 0000000140031a98     Game.obj
 0003:00005ab4       $unwind$?insert@?$basic_string@DU?$char_traits@D@std@@V?$allocator@D@2@@std@@QEAAAEAV12@_KQEBD0@Z 0000000140031ab4     Game.obj
 0003:00005ac8       $unwind$?insert@?$basic_string@DU?$char_traits@D@std@@V?$allocator@D@2@@std@@QEAAAEAV12@_KQEBD@Z 0000000140031ac8     Game.obj
 0003:00005adc       $unwind$?c_str@?$basic_string@DU?$char_traits@D@std@@V?$allocator@D@2@@std@@QEBAPEBDXZ 0000000140031adc     Game.obj
 0003:00005af0       $unwind$?max_size@?$basic_string@DU?$char_traits@D@std@@V?$allocator@D@2@@std@@QEBA_KXZ 0000000140031af0     Game.obj
 0003:00005b0c       $unwind$?_Calculate_growth@?$basic_string@DU?$char_traits@D@std@@V?$allocator@D@2@@std@@CA_K_K00@Z 0000000140031b0c     Game.obj
 0003:00005b28       $unwind$?_Calculate_growth@?$basic_string@DU?$char_traits@D@std@@V?$allocator@D@2@@std@@AEBA_K_K@Z 0000000140031b28     Game.obj
 0003:00005b3c       $unwind$?_Tidy_init@?$basic_string@DU?$char_traits@D@std@@V?$allocator@D@2@@std@@AEAAXXZ 0000000140031b3c     Game.obj
 0003:00005b50       $unwind$?_Tidy_deallocate@?$basic_string@DU?$char_traits@D@std@@V?$allocator@D@2@@std@@AEAAXXZ 0000000140031b50     Game.obj
 0003:00005b6a       $cppxdata$?_Tidy_deallocate@?$basic_string@DU?$char_traits@D@std@@V?$allocator@D@2@@std@@AEAAXXZ 0000000140031b6a     Game.obj
 0003:00005b6f       $ip2state$?_Tidy_deallocate@?$basic_string@DU?$char_traits@D@std@@V?$allocator@D@2@@std@@AEAAXXZ 0000000140031b6f     Game.obj
 0003:00005b74       $unwind$?_Swap_proxy_and_iterators@?$basic_string@DU?$char_traits@D@std@@V?$allocator@D@2@@std@@AEAAXAEAV12@@Z 0000000140031b74     Game.obj
 0003:00005b88       $unwind$?_Getal@?$basic_string@DU?$char_traits@D@std@@V?$allocator@D@2@@std@@AEAAAEAV?$allocator@D@2@XZ 0000000140031b88     Game.obj
 0003:00005b9c       $unwind$?_Getal@?$basic_string@DU?$char_traits@D@std@@V?$allocator@D@2@@std@@AEBAAEBV?$allocator@D@2@XZ 0000000140031b9c     Game.obj
 0003:00005bb0       $unwind$?_Get_first@?$_Compressed_pair@V?$allocator@D@std@@V?$_String_val@U?$_Simple_types@D@std@@@2@$00@std@@QEAAAEAV?$allocator@D@2@XZ 0000000140031bb0     Game.obj
 0003:00005bc4       $unwind$?_Get_first@?$_Compressed_pair@V?$allocator@D@std@@V?$_String_val@U?$_Simple_types@D@std@@@2@$00@std@@QEBAAEBV?$allocator@D@2@XZ 0000000140031bc4     Game.obj
 0003:00005bd8       $unwind$??1?$_Compressed_pair@V?$allocator@D@std@@V?$_String_val@U?$_Simple_types@D@std@@@2@$00@std@@QEAA@XZ 0000000140031bd8     Game.obj
 0003:00005bec       $unwind$??$_Adl_verify_range@PEADPEAD@std@@YAXAEBQEAD0@Z 0000000140031bec     Game.obj
 0003:00005c00       $unwind$?to_string@std@@YA?AV?$basic_string@DU?$char_traits@D@std@@V?$allocator@D@2@@1@H@Z 0000000140031c00     Game.obj
 0003:00005c14       $unwind$??$_Integral_to_string@DH@std@@YA?AV?$basic_string@DU?$char_traits@D@std@@V?$allocator@D@2@@0@H@Z 0000000140031c14     Game.obj
 0003:00005c30       $unwind$??0Game@@QEAA@XZ   0000000140031c30     Game.obj
 0003:00005c44       $unwind$??1Game@@QEAA@XZ   0000000140031c44     Game.obj
 0003:00005c58       $unwind$?init@Game@@QEAAXXZ 0000000140031c58     Game.obj
 0003:00005c76       $cppxdata$?init@Game@@QEAAXXZ 0000000140031c76     Game.obj
 0003:00005c7f       $stateUnwindMap$?init@Game@@QEAAXXZ 0000000140031c7f     Game.obj
 0003:00005c85       $ip2state$?init@Game@@QEAAXXZ 0000000140031c85     Game.obj
 0003:00005c90       $unwind$?dtor$0@?0??init@Game@@QEAAXXZ@4HA 0000000140031c90     Game.obj
 0003:00005ca0       $unwind$?loop@Game@@QEAAXXZ 0000000140031ca0     Game.obj
 0003:00005cbc       $unwind$?update@Game@@QEAAXXZ 0000000140031cbc     Game.obj
 0003:00005cda       $cppxdata$?update@Game@@QEAAXXZ 0000000140031cda     Game.obj
 0003:00005ce3       $stateUnwindMap$?update@Game@@QEAAXXZ 0000000140031ce3     Game.obj
 0003:00005cf4       $ip2state$?update@Game@@QEAAXXZ 0000000140031cf4     Game.obj
 0003:00005d00       $unwind$?dtor$0@?0??update@Game@@QEAAXXZ@4HA 0000000140031d00     Game.obj
 0003:00005d10       $unwind$?dtor$1@?0??update@Game@@QEAAXXZ@4HA 0000000140031d10     Game.obj
 0003:00005d20       $unwind$?render@Game@@QEAAXXZ 0000000140031d20     Game.obj
 0003:00005d3c       $unwind$?input@Game@@QEAAXXZ 0000000140031d3c     Game.obj
 0003:00005d50       $unwind$??__EgW@@YAXXZ     0000000140031d50     Game.obj
 0003:00005d6a       $cppxdata$??__EgW@@YAXXZ   0000000140031d6a     Game.obj
 0003:00005d73       $stateUnwindMap$??__EgW@@YAXXZ 0000000140031d73     Game.obj
 0003:00005d79       $ip2state$??__EgW@@YAXXZ   0000000140031d79     Game.obj
 0003:00005d80       $unwind$?dtor$0@?0???__EgW@@YAXXZ@4HA 0000000140031d80     Game.obj
 0003:00005d90       $unwind$??$endl@DU?$char_traits@D@std@@@std@@YAAEAV?$basic_ostream@DU?$char_traits@D@std@@@0@AEAV10@@Z 0000000140031d90     Game.obj
 0003:00005da4       $unwind$??$?HDU?$char_traits@D@std@@V?$allocator@D@1@@std@@YA?AV?$basic_string@DU?$char_traits@D@std@@V?$allocator@D@2@@0@QEBD$$QEAV10@@Z 0000000140031da4     Game.obj
 0003:00005db8       $unwind$??$min@_K@std@@YAAEB_KAEB_K0@Z 0000000140031db8     Game.obj
 0003:00005dcc       $unwind$?allocate@?$allocator@U_Container_proxy@std@@@std@@QEAAPEAU_Container_proxy@2@_K@Z 0000000140031dcc     Game.obj
 0003:00005de0       $unwind$??$_Delete_plain_internal@V?$allocator@U_Container_proxy@std@@@std@@@std@@YAXAEAV?$allocator@U_Container_proxy@std@@@0@QEAU_Container_proxy@0@@Z 0000000140031de0     Game.obj
 0003:00005df4       $unwind$??$_Alloc_proxy@V?$allocator@U_Container_proxy@std@@@std@@@_Container_base12@std@@QEAAX$$QEAV?$allocator@U_Container_proxy@std@@@1@@Z 0000000140031df4     Game.obj
 0003:00005e08       $unwind$??$_Convert_size@_K_K@std@@YA_K_K@Z 0000000140031e08     Game.obj
 0003:00005e1c       $unwind$??$?0D@?$allocator@U_Container_proxy@std@@@std@@QEAA@AEBV?$allocator@D@1@@Z 0000000140031e1c     Game.obj
 0003:00005e30       $unwind$??$?0V?$allocator@D@std@@$$V@?$_Compressed_pair@V?$allocator@D@std@@V?$_String_val@U?$_Simple_types@D@std@@@2@$00@std@@QEAA@U_One_then_variadic_args_t@1@$$QEAV?$allocator@D@1@@Z 0000000140031e30     Game.obj
 0003:00005e44       $unwind$??$_Destroy_in_place@PEAD@std@@YAXAEAPEAD@Z 0000000140031e44     Game.obj
 0003:00005e58       $unwind$??$_Construct_in_place@PEADAEAPEAD@std@@YAXAEAPEAD0@Z 0000000140031e58     Game.obj
 0003:00005e6c       $unwind$??$_Unfancy@D@std@@YAPEADPEAD@Z 0000000140031e6c     Game.obj
 0003:00005e80       $unwind$??$max@_K@std@@YAAEB_KAEB_K0@Z 0000000140031e80     Game.obj
 0003:00005e94       $unwind$??$_Deallocate@$0BA@$0A@@std@@YAXPEAX_K@Z 0000000140031e94     Game.obj
 0003:00005eae       $cppxdata$??$_Deallocate@$0BA@$0A@@std@@YAXPEAX_K@Z 0000000140031eae     Game.obj
 0003:00005eb3       $ip2state$??$_Deallocate@$0BA@$0A@@std@@YAXPEAX_K@Z 0000000140031eb3     Game.obj
 0003:00005eb8       $unwind$??$addressof@V?$_String_val@U?$_Simple_types@D@std@@@std@@@std@@YAPEAV?$_String_val@U?$_Simple_types@D@std@@@0@AEAV10@@Z 0000000140031eb8     Game.obj
 0003:00005ecc       $unwind$??$addressof@$$CBV?$_String_val@U?$_Simple_types@D@std@@@std@@@std@@YAPEBV?$_String_val@U?$_Simple_types@D@std@@@0@AEBV10@@Z 0000000140031ecc     Game.obj
 0003:00005ee0       $unwind$??$_Verify_range@D@std@@YAXQEBD0@Z 0000000140031ee0     Game.obj
 0003:00005ef4       $unwind$??$end@D$0BF@@std@@YAPEADAEAY0BF@D@Z 0000000140031ef4     Game.obj
 0003:00005f08       $unwind$??$_UIntegral_to_buff@DI@std@@YAPEADPEADI@Z 0000000140031f08     Game.obj
 0003:00005f1c       $unwind$??$?0PEAD$0A@@?$basic_string@DU?$char_traits@D@std@@V?$allocator@D@2@@std@@QEAA@PEAD0AEBV?$allocator@D@1@@Z 0000000140031f1c     Game.obj
 0003:00005f36       $cppxdata$??$?0PEAD$0A@@?$basic_string@DU?$char_traits@D@std@@V?$allocator@D@2@@std@@QEAA@PEAD0AEBV?$allocator@D@1@@Z 0000000140031f36     Game.obj
 0003:00005f3f       $stateUnwindMap$??$?0PEAD$0A@@?$basic_string@DU?$char_traits@D@std@@V?$allocator@D@2@@std@@QEAA@PEAD0AEBV?$allocator@D@1@@Z 0000000140031f3f     Game.obj
 0003:00005f45       $ip2state$??$?0PEAD$0A@@?$basic_string@DU?$char_traits@D@std@@V?$allocator@D@2@@std@@QEAA@PEAD0AEBV?$allocator@D@1@@Z 0000000140031f45     Game.obj
 0003:00005f50       $unwind$?dtor$0@?0???$?0PEAD$0A@@?$basic_string@DU?$char_traits@D@std@@V?$allocator@D@2@@std@@QEAA@PEAD0AEBV?$allocator@D@1@@Z@4HA 0000000140031f50     Game.obj
 0003:00005f60       $unwind$??$_Deallocate_plain@V?$allocator@U_Container_proxy@std@@@std@@@std@@YAXAEAV?$allocator@U_Container_proxy@std@@@0@QEAU_Container_proxy@0@@Z 0000000140031f60     Game.obj
 0003:00005f7a       $cppxdata$??$_Deallocate_plain@V?$allocator@U_Container_proxy@std@@@std@@@std@@YAXAEAV?$allocator@U_Container_proxy@std@@@0@QEAU_Container_proxy@0@@Z 0000000140031f7a     Game.obj
 0003:00005f7f       $ip2state$??$_Deallocate_plain@V?$allocator@U_Container_proxy@std@@@std@@@std@@YAXAEAV?$allocator@U_Container_proxy@std@@@0@QEAU_Container_proxy@0@@Z 0000000140031f7f     Game.obj
 0003:00005f84       $unwind$??0?$_Container_proxy_ptr12@V?$allocator@U_Container_proxy@std@@@std@@@std@@QEAA@AEAV?$allocator@U_Container_proxy@std@@@1@AEAU_Container_base12@1@@Z 0000000140031f84     Game.obj
 0003:00005f98       $unwind$??1?$_Container_proxy_ptr12@V?$allocator@U_Container_proxy@std@@@std@@@std@@QEAA@XZ 0000000140031f98     Game.obj
 0003:00005fac       $unwind$??$_Unfancy@U_Container_proxy@std@@@std@@YAPEAU_Container_proxy@0@PEAU10@@Z 0000000140031fac     Game.obj
 0003:00005fc0       $unwind$??$_Construct_in_place@PEADAEBQEAD@std@@YAXAEAPEADAEBQEAD@Z 0000000140031fc0     Game.obj
 0003:00005fd4       $unwind$??$addressof@PEAD@std@@YAPEAPEADAEAPEAD@Z 0000000140031fd4     Game.obj
 0003:00005fe8       $unwind$??$_Get_size_of_n@$0BA@@std@@YA_K_K@Z 0000000140031fe8     Game.obj
 0003:00005ffc       $unwind$??$_Allocate@$0BA@U_Default_allocate_traits@std@@$0A@@std@@YAPEAX_K@Z 0000000140031ffc     Game.obj
 0003:00006010       $unwind$??$_Get_size_of_n@$00@std@@YA_K_K@Z 0000000140032010     Game.obj
 0003:00006024       $unwind$??R<lambda_1>@?1??insert@?$basic_string@DU?$char_traits@D@std@@V?$allocator@D@2@@std@@QEAAAEAV23@_KQEBD0@Z@QEBA@QEAD10010@Z 0000000140032024     Game.obj
 0003:00006038       $unwind$??$_Reallocate_grow_by@V<lambda_1>@?1??insert@?$basic_string@DU?$char_traits@D@std@@V?$allocator@D@2@@std@@QEAAAEAV34@_KQEBD0@Z@_KPEBD_K@?$basic_string@DU?$char_traits@D@std@@V?$allocator@D@2@@std@@AEAAAEAV01@_KV<lambda_1>@?1??insert@01@QEAAAEAV01@0QEBD0@Z@_KPEBD3@Z 0000000140032038     Game.obj
 0003:00006054       $unwind$??$addressof@U_Container_proxy@std@@@std@@YAPEAU_Container_proxy@0@AEAU10@@Z 0000000140032054     Game.obj
 0003:00006068       $unwind$??$?0AEBV?$allocator@D@std@@$$V@?$_Compressed_pair@V?$allocator@D@std@@V?$_String_val@U?$_Simple_types@D@std@@@2@$00@std@@QEAA@U_One_then_variadic_args_t@1@AEBV?$allocator@D@1@@Z 0000000140032068     Game.obj
 0003:0000607c       $unwind$??$_Get_unwrapped@AEAPEAD@std@@YA?A_TAEAPEAD@Z 000000014003207c     Game.obj
 0003:00006090       $unwind$??$_Construct@$00PEAD@?$basic_string@DU?$char_traits@D@std@@V?$allocator@D@2@@std@@AEAAXQEAD_K@Z 0000000140032090     Game.obj
 0003:000060ae       $cppxdata$??$_Construct@$00PEAD@?$basic_string@DU?$char_traits@D@std@@V?$allocator@D@2@@std@@AEAAXQEAD_K@Z 00000001400320ae     Game.obj
 0003:000060b7       $stateUnwindMap$??$_Construct@$00PEAD@?$basic_string@DU?$char_traits@D@std@@V?$allocator@D@2@@std@@AEAAXQEAD_K@Z 00000001400320b7     Game.obj
 0003:000060bd       $ip2state$??$_Construct@$00PEAD@?$basic_string@DU?$char_traits@D@std@@V?$allocator@D@2@@std@@AEAAXQEAD_K@Z 00000001400320bd     Game.obj
 0003:000060cc       $unwind$?dtor$0@?0???$_Construct@$00PEAD@?$basic_string@DU?$char_traits@D@std@@V?$allocator@D@2@@std@@AEAAXQEAD_K@Z@4HA 00000001400320cc     Game.obj
 0003:000060dc       $unwind$?deallocate@?$_Default_allocator_traits@V?$allocator@U_Container_proxy@std@@@std@@@std@@SAXAEAV?$allocator@U_Container_proxy@std@@@2@QEAU_Container_proxy@2@_K@Z 00000001400320dc     Game.obj
 0003:000060f0       $unwind$??$_Allocate_manually_vector_aligned@U_Default_allocate_traits@std@@@std@@YAPEAX_K@Z 00000001400320f0     Game.obj
 0003:00006104       $unwind$??0?$basic_string@DU?$char_traits@D@std@@V?$allocator@D@2@@std@@QEAA@QEBD@Z 0000000140032104     Gameworld.obj
 0003:0000611e       $cppxdata$??0?$basic_string@DU?$char_traits@D@std@@V?$allocator@D@2@@std@@QEAA@QEBD@Z 000000014003211e     Gameworld.obj
 0003:00006127       $stateUnwindMap$??0?$basic_string@DU?$char_traits@D@std@@V?$allocator@D@2@@std@@QEAA@QEBD@Z 0000000140032127     Gameworld.obj
 0003:0000612d       $ip2state$??0?$basic_string@DU?$char_traits@D@std@@V?$allocator@D@2@@std@@QEAA@QEBD@Z 000000014003212d     Gameworld.obj
 0003:00006134       $unwind$?dtor$0@?0???0?$basic_string@DU?$char_traits@D@std@@V?$allocator@D@2@@std@@QEAA@QEBD@Z@4HA 0000000140032134     Gameworld.obj
 0003:00006144       $unwind$?setID@Obj@@QEAAXH@Z 0000000140032144     Gameworld.obj
 0003:00006158       $unwind$??0Obj@@QEAA@XZ    0000000140032158     Gameworld.obj
 0003:0000616c       $unwind$?__autoclassinit2@Obj@@QEAAX_K@Z 000000014003216c     Gameworld.obj
 0003:00006180       $unwind$??0?$allocator@VObj@@@std@@QEAA@XZ 0000000140032180     Gameworld.obj
 0003:00006194       $unwind$??0?$vector@VObj@@V?$allocator@VObj@@@std@@@std@@QEAA@XZ 0000000140032194     Gameworld.obj
 0003:000061ae       $cppxdata$??0?$vector@VObj@@V?$allocator@VObj@@@std@@@std@@QEAA@XZ 00000001400321ae     Gameworld.obj
 0003:000061b3       $ip2state$??0?$vector@VObj@@V?$allocator@VObj@@@std@@@std@@QEAA@XZ 00000001400321b3     Gameworld.obj
 0003:000061b8       $unwind$?_Getal@?$vector@VObj@@V?$allocator@VObj@@@std@@@std@@AEAAAEAV?$allocator@VObj@@@2@XZ 00000001400321b8     Gameworld.obj
 0003:000061cc       $unwind$??0?$_Vector_val@U?$_Simple_types@VObj@@@std@@@std@@QEAA@XZ 00000001400321cc     Gameworld.obj
 0003:000061e0       $unwind$?_Get_first@?$_Compressed_pair@V?$allocator@VObj@@@std@@V?$_Vector_val@U?$_Simple_types@VObj@@@std@@@2@$00@std@@QEAAAEAV?$allocator@VObj@@@2@XZ 00000001400321e0     Gameworld.obj
 0003:000061f4       $unwind$??0Tilemap@@QEAA@XZ 00000001400321f4     Gameworld.obj
 0003:00006208       $unwind$?__autoclassinit2@Tilemap@@QEAAX_K@Z 0000000140032208     Gameworld.obj
 0003:0000621c       $unwind$??0Gameworld@@QEAA@XZ 000000014003221c     Gameworld.obj
 0003:00006230       $unwind$?init@Gameworld@@QEAAXPEAUSDL_Renderer@@@Z 0000000140032230     Gameworld.obj
 0003:00006244       $unwind$?input@Gameworld@@QEAAXTSDL_Event@@@Z 0000000140032244     Gameworld.obj
 0003:00006258       $unwind$?update@Gameworld@@QEAAXXZ 0000000140032258     Gameworld.obj
 0003:0000626c       $unwind$?render@Gameworld@@QEAAXPEAUSDL_Renderer@@@Z 000000014003226c     Gameworld.obj
 0003:00006280       $unwind$?loadLevel@Gameworld@@QEAAXPEAUSDL_Renderer@@@Z 0000000140032280     Gameworld.obj
 0003:00006294       $unwind$??__Emap@@YAXXZ    0000000140032294     Gameworld.obj
 0003:000062a8       $unwind$??__Eplayer@@YAXXZ 00000001400322a8     Gameworld.obj
 0003:000062bc       $unwind$??$?0VObj@@@?$allocator@U_Container_proxy@std@@@std@@QEAA@AEBV?$allocator@VObj@@@1@@Z 00000001400322bc     Gameworld.obj
 0003:000062d0       $unwind$??$?0$$V@?$_Compressed_pair@V?$allocator@VObj@@@std@@V?$_Vector_val@U?$_Simple_types@VObj@@@std@@@2@$00@std@@QEAA@U_Zero_then_variadic_args_t@1@@Z 00000001400322d0     Gameworld.obj
 0003:000062e4       $unwind$??$?0$$V@?$_Compressed_pair@V?$allocator@D@std@@V?$_String_val@U?$_Simple_types@D@std@@@2@$00@std@@QEAA@U_Zero_then_variadic_args_t@1@@Z 00000001400322e4     Gameworld.obj
 0003:000062f8       $unwind$??$_Construct@$00PEBD@?$basic_string@DU?$char_traits@D@std@@V?$allocator@D@2@@std@@AEAAXQEBD_K@Z 00000001400322f8     Gameworld.obj
 0003:00006316       $cppxdata$??$_Construct@$00PEBD@?$basic_string@DU?$char_traits@D@std@@V?$allocator@D@2@@std@@AEAAXQEBD_K@Z 0000000140032316     Gameworld.obj
 0003:0000631f       $stateUnwindMap$??$_Construct@$00PEBD@?$basic_string@DU?$char_traits@D@std@@V?$allocator@D@2@@std@@AEAAXQEBD_K@Z 000000014003231f     Gameworld.obj
 0003:00006325       $ip2state$??$_Construct@$00PEBD@?$basic_string@DU?$char_traits@D@std@@V?$allocator@D@2@@std@@AEAAXQEBD_K@Z 0000000140032325     Gameworld.obj
 0003:00006334       $unwind$?dtor$0@?0???$_Construct@$00PEBD@?$basic_string@DU?$char_traits@D@std@@V?$allocator@D@2@@std@@AEAAXQEBD_K@Z@4HA 0000000140032334     Gameworld.obj
 0003:00006344       $unwind$?update@Obj@@QEAAXXZ 0000000140032344     Obj.obj
 0003:00006358       $unwind$?renderer@Obj@@QEAAXPEAUSDL_Renderer@@@Z 0000000140032358     Obj.obj
 0003:00006374       $unwind$?getDestination@Obj@@QEBA?AUSDL_Rect@@XZ 0000000140032374     Obj.obj
 0003:00006388       $unwind$?getSource@Obj@@QEBA?AUSDL_Rect@@XZ 0000000140032388     Obj.obj
 0003:0000639c       $unwind$?setImage@Obj@@QEAAXV?$basic_string@DU?$char_traits@D@std@@V?$allocator@D@2@@std@@PEAUSDL_Renderer@@@Z 000000014003239c     Obj.obj
 0003:000063b0       $unwind$?setSource@Obj@@QEAAXHHHH@Z 00000001400323b0     Obj.obj
 0003:000063c4       $unwind$?setDestination@Obj@@QEAAXVV2D@@@Z 00000001400323c4     Obj.obj
 0003:000063d8       $unwind$?setDestination@Obj@@QEAAXVV2D@@HH@Z 00000001400323d8     Obj.obj
 0003:000063ec       $unwind$??0Splashscreen@@QEAA@PEAUSDL_Renderer@@@Z 00000001400323ec     Splashscreen.obj
 0003:00006406       $cppxdata$??0Splashscreen@@QEAA@PEAUSDL_Renderer@@@Z 0000000140032406     Splashscreen.obj
 0003:0000640f       $stateUnwindMap$??0Splashscreen@@QEAA@PEAUSDL_Renderer@@@Z 000000014003240f     Splashscreen.obj
 0003:0000642b       $ip2state$??0Splashscreen@@QEAA@PEAUSDL_Renderer@@@Z 000000014003242b     Splashscreen.obj
 0003:00006444       $unwind$?dtor$0@?0???0Splashscreen@@QEAA@PEAUSDL_Renderer@@@Z@4HA 0000000140032444     Splashscreen.obj
 0003:00006454       $unwind$?dtor$1@?0???0Splashscreen@@QEAA@PEAUSDL_Renderer@@@Z@4HA 0000000140032454     Splashscreen.obj
 0003:00006464       $unwind$?dtor$2@?0???0Splashscreen@@QEAA@PEAUSDL_Renderer@@@Z@4HA 0000000140032464     Splashscreen.obj
 0003:00006474       $unwind$?dtor$3@?0???0Splashscreen@@QEAA@PEAUSDL_Renderer@@@Z@4HA 0000000140032474     Splashscreen.obj
 0003:00006484       $unwind$?dtor$4@?0???0Splashscreen@@QEAA@PEAUSDL_Renderer@@@Z@4HA 0000000140032484     Splashscreen.obj
 0003:00006494       $unwind$?to_char_type@?$_Narrow_char_traits@DH@std@@SADAEBH@Z 0000000140032494     Tilemap.obj
 0003:000064a8       $unwind$?to_int_type@?$_Narrow_char_traits@DH@std@@SAHAEBD@Z 00000001400324a8     Tilemap.obj
 0003:000064bc       $unwind$?not_eof@?$_Narrow_char_traits@DH@std@@SAHAEBH@Z 00000001400324bc     Tilemap.obj
 0003:000064d0       $unwind$?_Clamp_suffix_size@?$_String_val@U?$_Simple_types@D@std@@@std@@QEBA_K_K0@Z 00000001400324d0     Tilemap.obj
 0003:000064e4       $unwind$??0?$basic_string@DU?$char_traits@D@std@@V?$allocator@D@2@@std@@QEAA@XZ 00000001400324e4     Tilemap.obj
 0003:000064fe       $cppxdata$??0?$basic_string@DU?$char_traits@D@std@@V?$allocator@D@2@@std@@QEAA@XZ 00000001400324fe     Tilemap.obj
 0003:00006503       $ip2state$??0?$basic_string@DU?$char_traits@D@std@@V?$allocator@D@2@@std@@QEAA@XZ 0000000140032503     Tilemap.obj
 0003:00006508       $unwind$?_Erase_noexcept@?$basic_string@DU?$char_traits@D@std@@V?$allocator@D@2@@std@@AEAAAEAV12@_K_K@Z 0000000140032508     Tilemap.obj
 0003:0000651c       $unwind$?erase@?$basic_string@DU?$char_traits@D@std@@V?$allocator@D@2@@std@@QEAAAEAV12@_K0@Z 000000014003251c     Tilemap.obj
 0003:00006530       $unwind$?push_back@?$basic_string@DU?$char_traits@D@std@@V?$allocator@D@2@@std@@QEAAXD@Z 0000000140032530     Tilemap.obj
 0003:00006544       $unwind$?front@?$basic_string@DU?$char_traits@D@std@@V?$allocator@D@2@@std@@QEAAAEADXZ 0000000140032544     Tilemap.obj
 0003:00006558       $unwind$?data@?$basic_string@DU?$char_traits@D@std@@V?$allocator@D@2@@std@@QEBAPEBDXZ 0000000140032558     Tilemap.obj
 0003:0000656c       $unwind$?size@?$basic_string@DU?$char_traits@D@std@@V?$allocator@D@2@@std@@QEBA_KXZ 000000014003256c     Tilemap.obj
 0003:00006580       $unwind$??0bad_cast@std@@QEAA@XZ 0000000140032580     Tilemap.obj
 0003:00006594       $unwind$??1bad_cast@std@@UEAA@XZ 0000000140032594     Tilemap.obj
 0003:000065a8       $unwind$??0bad_cast@std@@QEAA@AEBV01@@Z 00000001400325a8     Tilemap.obj
 0003:000065bc       $unwind$??_Gbad_cast@std@@UEAAPEAXI@Z 00000001400325bc     Tilemap.obj
 0003:000065d0       $unwind$?_Throw_bad_cast@std@@YAXXZ 00000001400325d0     Tilemap.obj
 0003:000065e4       $unwind$??1locale@std@@QEAA@XZ 00000001400325e4     Tilemap.obj
 0003:000065f8       $unwind$?_Getfacet@locale@std@@QEBAPEBVfacet@12@_K@Z 00000001400325f8     Tilemap.obj
 0003:0000660c       $unwind$??$_Fgetc@D@std@@YA_NAEADPEAU_iobuf@@@Z 000000014003260c     Tilemap.obj
 0003:00006620       $unwind$??$_Fputc@D@std@@YA_NDPEAU_iobuf@@@Z 0000000140032620     Tilemap.obj
 0003:00006634       $unwind$??$_Ungetc@D@std@@YA_NAEBDPEAU_iobuf@@@Z 0000000140032634     Tilemap.obj
 0003:00006648       $unwind$?getTexture@Obj@@QEBAPEAUSDL_Texture@@XZ 0000000140032648     Tilemap.obj
 0003:0000665c       $unwind$?getDestinationX@Obj@@QEBAHXZ 000000014003265c     Tilemap.obj
 0003:00006670       $unwind$?getDestinationY@Obj@@QEBAHXZ 0000000140032670     Tilemap.obj
 0003:00006684       $unwind$?makeSolid@Obj@@QEAAX_N@Z 0000000140032684     Tilemap.obj
 0003:00006698       $unwind$?loadMap@Tilemap@@QEAAXPEBDPEAUSDL_Renderer@@@Z 0000000140032698     Tilemap.obj
 0003:000066b6       $cppxdata$?loadMap@Tilemap@@QEAAXPEBDPEAUSDL_Renderer@@@Z 00000001400326b6     Tilemap.obj
 0003:000066bf       $stateUnwindMap$?loadMap@Tilemap@@QEAAXPEBDPEAUSDL_Renderer@@@Z 00000001400326bf     Tilemap.obj
 0003:000066c5       $ip2state$?loadMap@Tilemap@@QEAAXPEBDPEAUSDL_Renderer@@@Z 00000001400326c5     Tilemap.obj
 0003:000066d8       $unwind$?dtor$0@?0??loadMap@Tilemap@@QEAAXPEBDPEAUSDL_Renderer@@@Z@4HA 00000001400326d8     Tilemap.obj
 0003:000066e8       $unwind$?drawMap@Tilemap@@QEAAXPEAUSDL_Renderer@@@Z 00000001400326e8     Tilemap.obj
 0003:000066fc       $unwind$?drawTiles@Tilemap@@QEAAXVObj@@PEAUSDL_Renderer@@@Z 00000001400326fc     Tilemap.obj
 0003:00006718       $unwind$?deallocate@?$allocator@VObj@@@std@@QEAAXQEAVObj@@_K@Z 0000000140032718     Tilemap.obj
 0003:0000672c       $unwind$?allocate@?$allocator@VObj@@@std@@QEAAPEAVObj@@_K@Z 000000014003272c     Tilemap.obj
 0003:00006740       $unwind$?max_size@?$_Default_allocator_traits@V?$allocator@VObj@@@std@@@std@@SA_KAEBV?$allocator@VObj@@@2@@Z 0000000140032740     Tilemap.obj
 0003:00006754       $unwind$?push_back@?$vector@VObj@@V?$allocator@VObj@@@std@@@std@@QEAAXAEBVObj@@@Z 0000000140032754     Tilemap.obj
 0003:00006768       $unwind$?clear@?$vector@VObj@@V?$allocator@VObj@@@std@@@std@@QEAAXXZ 0000000140032768     Tilemap.obj
 0003:0000677c       $unwind$?empty@?$vector@VObj@@V?$allocator@VObj@@@std@@@std@@QEBA_NXZ 000000014003277c     Tilemap.obj
 0003:00006790       $unwind$?size@?$vector@VObj@@V?$allocator@VObj@@@std@@@std@@QEBA_KXZ 0000000140032790     Tilemap.obj
 0003:000067a4       $unwind$?max_size@?$vector@VObj@@V?$allocator@VObj@@@std@@@std@@QEBA_KXZ 00000001400327a4     Tilemap.obj
 0003:000067b8       $unwind$?capacity@?$vector@VObj@@V?$allocator@VObj@@@std@@@std@@QEBA_KXZ 00000001400327b8     Tilemap.obj
 0003:000067cc       $unwind$??A?$vector@VObj@@V?$allocator@VObj@@@std@@@std@@QEAAAEAVObj@@_K@Z 00000001400327cc     Tilemap.obj
 0003:000067e0       $unwind$?_Calculate_growth@?$vector@VObj@@V?$allocator@VObj@@@std@@@std@@AEBA_K_K@Z 00000001400327e0     Tilemap.obj
 0003:000067f4       $unwind$?_Change_array@?$vector@VObj@@V?$allocator@VObj@@@std@@@std@@AEAAXQEAVObj@@_K1@Z 00000001400327f4     Tilemap.obj
 0003:00006808       $unwind$?_Xlength@?$vector@VObj@@V?$allocator@VObj@@@std@@@std@@CAXXZ 0000000140032808     Tilemap.obj
 0003:0000681c       $unwind$?_Orphan_range_unlocked@?$vector@VObj@@V?$allocator@VObj@@@std@@@std@@AEBAXPEAVObj@@0@Z 000000014003281c     Tilemap.obj
 0003:00006830       $unwind$?_Orphan_range_locked@?$vector@VObj@@V?$allocator@VObj@@@std@@@std@@AEBAXPEAVObj@@0@Z 0000000140032830     Tilemap.obj
 0003:0000684e       $cppxdata$?_Orphan_range_locked@?$vector@VObj@@V?$allocator@VObj@@@std@@@std@@AEBAXPEAVObj@@0@Z 000000014003284e     Tilemap.obj
 0003:00006857       $stateUnwindMap$?_Orphan_range_locked@?$vector@VObj@@V?$allocator@VObj@@@std@@@std@@AEBAXPEAVObj@@0@Z 0000000140032857     Tilemap.obj
 0003:0000685d       $ip2state$?_Orphan_range_locked@?$vector@VObj@@V?$allocator@VObj@@@std@@@std@@AEBAXPEAVObj@@0@Z 000000014003285d     Tilemap.obj
 0003:00006864       $unwind$?dtor$0@?0??_Orphan_range_locked@?$vector@VObj@@V?$allocator@VObj@@@std@@@std@@AEBAXPEAVObj@@0@Z@4HA 0000000140032864     Tilemap.obj
 0003:00006874       $unwind$?_Orphan_range@?$vector@VObj@@V?$allocator@VObj@@@std@@@std@@AEBAXPEAVObj@@0@Z 0000000140032874     Tilemap.obj
 0003:00006888       $unwind$?_Getal@?$vector@VObj@@V?$allocator@VObj@@@std@@@std@@AEBAAEBV?$allocator@VObj@@@2@XZ 0000000140032888     Tilemap.obj
 0003:0000689c       $unwind$?_Get_first@?$_Compressed_pair@V?$allocator@VObj@@@std@@V?$_Vector_val@U?$_Simple_types@VObj@@@std@@@2@$00@std@@QEBAAEBV?$allocator@VObj@@@2@XZ 000000014003289c     Tilemap.obj
 0003:000068b0       $unwind$??0?$basic_ifstream@DU?$char_traits@D@std@@@std@@QEAA@PEBDHH@Z 00000001400328b0     Tilemap.obj
 0003:000068ca       $cppxdata$??0?$basic_ifstream@DU?$char_traits@D@std@@@std@@QEAA@PEBDHH@Z 00000001400328ca     Tilemap.obj
 0003:000068d3       $stateUnwindMap$??0?$basic_ifstream@DU?$char_traits@D@std@@@std@@QEAA@PEBDHH@Z 00000001400328d3     Tilemap.obj
 0003:000068e4       $ip2state$??0?$basic_ifstream@DU?$char_traits@D@std@@@std@@QEAA@PEBDHH@Z 00000001400328e4     Tilemap.obj
 0003:000068f0       $unwind$?dtor$0@?0???0?$basic_ifstream@DU?$char_traits@D@std@@@std@@QEAA@PEBDHH@Z@4HA 00000001400328f0     Tilemap.obj
 0003:00006900       $unwind$?dtor$1@?0???0?$basic_ifstream@DU?$char_traits@D@std@@@std@@QEAA@PEBDHH@Z@4HA 0000000140032900     Tilemap.obj
 0003:00006910       $unwind$?dtor$2@?0???0?$basic_ifstream@DU?$char_traits@D@std@@@std@@QEAA@PEBDHH@Z@4HA 0000000140032910     Tilemap.obj
 0003:00006920       $unwind$??1?$basic_ifstream@DU?$char_traits@D@std@@@std@@UEAA@XZ 0000000140032920     Tilemap.obj
 0003:00006934       $unwind$?is_open@?$basic_ifstream@DU?$char_traits@D@std@@@std@@QEBA_NXZ 0000000140032934     Tilemap.obj
 0003:00006948       $unwind$?close@?$basic_ifstream@DU?$char_traits@D@std@@@std@@QEAAXXZ 0000000140032948     Tilemap.obj
 0003:0000695c       $unwind$??0?$basic_filebuf@DU?$char_traits@D@std@@@std@@QEAA@XZ 000000014003295c     Tilemap.obj
 0003:00006970       $unwind$??1?$basic_filebuf@DU?$char_traits@D@std@@@std@@UEAA@XZ 0000000140032970     Tilemap.obj
 0003:0000698a       $cppxdata$??1?$basic_filebuf@DU?$char_traits@D@std@@@std@@UEAA@XZ 000000014003298a     Tilemap.obj
 0003:0000698f       $ip2state$??1?$basic_filebuf@DU?$char_traits@D@std@@@std@@UEAA@XZ 000000014003298f     Tilemap.obj
 0003:00006994       $unwind$?is_open@?$basic_filebuf@DU?$char_traits@D@std@@@std@@QEBA_NXZ 0000000140032994     Tilemap.obj
 0003:000069a8       $unwind$?open@?$basic_filebuf@DU?$char_traits@D@std@@@std@@QEAAPEAV12@PEBDHH@Z 00000001400329a8     Tilemap.obj
 0003:000069c2       $cppxdata$?open@?$basic_filebuf@DU?$char_traits@D@std@@@std@@QEAAPEAV12@PEBDHH@Z 00000001400329c2     Tilemap.obj
 0003:000069cb       $stateUnwindMap$?open@?$basic_filebuf@DU?$char_traits@D@std@@@std@@QEAAPEAV12@PEBDHH@Z 00000001400329cb     Tilemap.obj
 0003:000069d1       $ip2state$?open@?$basic_filebuf@DU?$char_traits@D@std@@@std@@QEAAPEAV12@PEBDHH@Z 00000001400329d1     Tilemap.obj
 0003:000069dc       $unwind$?dtor$0@?0??open@?$basic_filebuf@DU?$char_traits@D@std@@@std@@QEAAPEAV12@PEBDHH@Z@4HA 00000001400329dc     Tilemap.obj
 0003:000069ec       $unwind$?close@?$basic_filebuf@DU?$char_traits@D@std@@@std@@QEAAPEAV12@XZ 00000001400329ec     Tilemap.obj
 0003:00006a00       $unwind$?_Lock@?$basic_filebuf@DU?$char_traits@D@std@@@std@@UEAAXXZ 0000000140032a00     Tilemap.obj
 0003:00006a14       $unwind$?_Unlock@?$basic_filebuf@DU?$char_traits@D@std@@@std@@UEAAXXZ 0000000140032a14     Tilemap.obj
 0003:00006a28       $unwind$?overflow@?$basic_filebuf@DU?$char_traits@D@std@@@std@@MEAAHH@Z 0000000140032a28     Tilemap.obj
 0003:00006a44       $unwind$?pbackfail@?$basic_filebuf@DU?$char_traits@D@std@@@std@@MEAAHH@Z 0000000140032a44     Tilemap.obj
 0003:00006a58       $unwind$?underflow@?$basic_filebuf@DU?$char_traits@D@std@@@std@@MEAAHXZ 0000000140032a58     Tilemap.obj
 0003:00006a74       $unwind$?uflow@?$basic_filebuf@DU?$char_traits@D@std@@@std@@MEAAHXZ 0000000140032a74     Tilemap.obj
 0003:00006a92       $cppxdata$?uflow@?$basic_filebuf@DU?$char_traits@D@std@@@std@@MEAAHXZ 0000000140032a92     Tilemap.obj
 0003:00006a9b       $stateUnwindMap$?uflow@?$basic_filebuf@DU?$char_traits@D@std@@@std@@MEAAHXZ 0000000140032a9b     Tilemap.obj
 0003:00006aa1       $ip2state$?uflow@?$basic_filebuf@DU?$char_traits@D@std@@@std@@MEAAHXZ 0000000140032aa1     Tilemap.obj
 0003:00006abc       $unwind$?dtor$0@?0??uflow@?$basic_filebuf@DU?$char_traits@D@std@@@std@@MEAAHXZ@4HA 0000000140032abc     Tilemap.obj
 0003:00006acc       $unwind$?xsgetn@?$basic_filebuf@DU?$char_traits@D@std@@@std@@MEAA_JPEAD_J@Z 0000000140032acc     Tilemap.obj
 0003:00006ae8       $unwind$?xsputn@?$basic_filebuf@DU?$char_traits@D@std@@@std@@MEAA_JPEBD_J@Z 0000000140032ae8     Tilemap.obj
 0003:00006afc       $unwind$?seekoff@?$basic_filebuf@DU?$char_traits@D@std@@@std@@MEAA?AV?$fpos@U_Mbstatet@@@2@_JHH@Z 0000000140032afc     Tilemap.obj
 0003:00006b18       $unwind$?seekpos@?$basic_filebuf@DU?$char_traits@D@std@@@std@@MEAA?AV?$fpos@U_Mbstatet@@@2@V32@H@Z 0000000140032b18     Tilemap.obj
 0003:00006b34       $unwind$?setbuf@?$basic_filebuf@DU?$char_traits@D@std@@@std@@MEAAPEAV?$basic_streambuf@DU?$char_traits@D@std@@@2@PEAD_J@Z 0000000140032b34     Tilemap.obj
 0003:00006b48       $unwind$?sync@?$basic_filebuf@DU?$char_traits@D@std@@@std@@MEAAHXZ 0000000140032b48     Tilemap.obj
 0003:00006b5c       $unwind$?imbue@?$basic_filebuf@DU?$char_traits@D@std@@@std@@MEAAXAEBVlocale@2@@Z 0000000140032b5c     Tilemap.obj
 0003:00006b70       $unwind$?_Init@?$basic_filebuf@DU?$char_traits@D@std@@@std@@IEAAXPEAU_iobuf@@W4_Initfl@12@@Z 0000000140032b70     Tilemap.obj
 0003:00006b8c       $unwind$?_Endwrite@?$basic_filebuf@DU?$char_traits@D@std@@@std@@IEAA_NXZ 0000000140032b8c     Tilemap.obj
 0003:00006ba8       $unwind$?_Initcvt@?$basic_filebuf@DU?$char_traits@D@std@@@std@@IEAAXAEBV?$codecvt@DDU_Mbstatet@@@2@@Z 0000000140032ba8     Tilemap.obj
 0003:00006bbc       $unwind$?_Reset_back@?$basic_filebuf@DU?$char_traits@D@std@@@std@@AEAAXXZ 0000000140032bbc     Tilemap.obj
 0003:00006bd0       $unwind$?_Set_back@?$basic_filebuf@DU?$char_traits@D@std@@@std@@AEAAXXZ 0000000140032bd0     Tilemap.obj
 0003:00006be4       $unwind$??_G?$basic_filebuf@DU?$char_traits@D@std@@@std@@UEAAPEAXI@Z 0000000140032be4     Tilemap.obj
 0003:00006bf8       $unwind$?__autoclassinit2@?$basic_ifstream@DU?$char_traits@D@std@@@std@@QEAAX_K@Z 0000000140032bf8     Tilemap.obj
 0003:00006c0c       $unwind$??_G?$basic_ifstream@DU?$char_traits@D@std@@@std@@UEAAPEAXI@Z 0000000140032c0c     Tilemap.obj
 0003:00006c20       $unwind$??_D?$basic_ifstream@DU?$char_traits@D@std@@@std@@QEAAXXZ 0000000140032c20     Tilemap.obj
 0003:00006c34       $unwind$??$use_facet@V?$codecvt@DDU_Mbstatet@@@std@@@std@@YAAEBV?$codecvt@DDU_Mbstatet@@@0@AEBVlocale@0@@Z 0000000140032c34     Tilemap.obj
 0003:00006c52       $cppxdata$??$use_facet@V?$codecvt@DDU_Mbstatet@@@std@@@std@@YAAEBV?$codecvt@DDU_Mbstatet@@@0@AEBVlocale@0@@Z 0000000140032c52     Tilemap.obj
 0003:00006c5b       $stateUnwindMap$??$use_facet@V?$codecvt@DDU_Mbstatet@@@std@@@std@@YAAEBV?$codecvt@DDU_Mbstatet@@@0@AEBVlocale@0@@Z 0000000140032c5b     Tilemap.obj
 0003:00006c67       $ip2state$??$use_facet@V?$codecvt@DDU_Mbstatet@@@std@@@std@@YAAEBV?$codecvt@DDU_Mbstatet@@@0@AEBVlocale@0@@Z 0000000140032c67     Tilemap.obj
 0003:00006c74       $unwind$?dtor$0@?0???$use_facet@V?$codecvt@DDU_Mbstatet@@@std@@@std@@YAAEBV?$codecvt@DDU_Mbstatet@@@0@AEBVlocale@0@@Z@4HA 0000000140032c74     Tilemap.obj
 0003:00006c84       $unwind$?dtor$1@?0???$use_facet@V?$codecvt@DDU_Mbstatet@@@std@@@std@@YAAEBV?$codecvt@DDU_Mbstatet@@@0@AEBVlocale@0@@Z@4HA 0000000140032c84     Tilemap.obj
 0003:00006c94       $unwind$??0?$fpos@U_Mbstatet@@@std@@QEAA@_J@Z 0000000140032c94     Tilemap.obj
 0003:00006ca8       $unwind$??0?$fpos@U_Mbstatet@@@std@@QEAA@U_Mbstatet@@_J@Z 0000000140032ca8     Tilemap.obj
 0003:00006cbc       $unwind$?state@?$fpos@U_Mbstatet@@@std@@QEBA?AU_Mbstatet@@XZ 0000000140032cbc     Tilemap.obj
 0003:00006cd0       $unwind$??B?$fpos@U_Mbstatet@@@std@@QEBA_JXZ 0000000140032cd0     Tilemap.obj
 0003:00006ce4       $unwind$??$addressof@V?$basic_filebuf@DU?$char_traits@D@std@@@std@@@std@@YAPEAV?$basic_filebuf@DU?$char_traits@D@std@@@0@AEAV10@@Z 0000000140032ce4     Tilemap.obj
 0003:00006cf8       $unwind$??$_Destroy_range@V?$allocator@VObj@@@std@@@std@@YAXPEAVObj@@QEAV1@AEAV?$allocator@VObj@@@0@@Z 0000000140032cf8     Tilemap.obj
 0003:00006d0c       $unwind$??$_Emplace_one_at_back@AEBVObj@@@?$vector@VObj@@V?$allocator@VObj@@@std@@@std@@AEAAAEAVObj@@AEBV2@@Z 0000000140032d0c     Tilemap.obj
 0003:00006d20       $unwind$??$addressof@$$CBV?$codecvt@DDU_Mbstatet@@@std@@@std@@YAPEBV?$codecvt@DDU_Mbstatet@@@0@AEBV10@@Z 0000000140032d20     Tilemap.obj
 0003:00006d34       $unwind$??R<lambda_1>@?1??push_back@?$basic_string@DU?$char_traits@D@std@@V?$allocator@D@2@@std@@QEAAXD@Z@QEBA@QEADQEBD_KD@Z 0000000140032d34     Tilemap.obj
 0003:00006d48       $unwind$??$_Reallocate_grow_by@V<lambda_1>@?1??push_back@?$basic_string@DU?$char_traits@D@std@@V?$allocator@D@2@@std@@QEAAXD@Z@D@?$basic_string@DU?$char_traits@D@std@@V?$allocator@D@2@@std@@AEAAAEAV01@_KV<lambda_1>@?1??push_back@01@QEAAXD@Z@D@Z 0000000140032d48     Tilemap.obj
 0003:00006d64       $unwind$??R?$default_delete@V_Facet_base@std@@@std@@QEBAXPEAV_Facet_base@1@@Z 0000000140032d64     Tilemap.obj
 0003:00006d78       $unwind$??1?$unique_ptr@V_Facet_base@std@@U?$default_delete@V_Facet_base@std@@@2@@std@@QEAA@XZ 0000000140032d78     Tilemap.obj
 0003:00006d8c       $unwind$?release@?$unique_ptr@V_Facet_base@std@@U?$default_delete@V_Facet_base@std@@@2@@std@@QEAAPEAV_Facet_base@2@XZ 0000000140032d8c     Tilemap.obj
 0003:00006da0       $unwind$?_Get_first@?$_Compressed_pair@U?$default_delete@V_Facet_base@std@@@std@@PEAV_Facet_base@2@$00@std@@QEAAAEAU?$default_delete@V_Facet_base@std@@@2@XZ 0000000140032da0     Tilemap.obj
 0003:00006db4       $unwind$?__autoclassinit2@?$unique_ptr@V_Facet_base@std@@U?$default_delete@V_Facet_base@std@@@2@@std@@QEAAX_K@Z 0000000140032db4     Tilemap.obj
 0003:00006dc8       $unwind$??$?0U?$default_delete@V_Facet_base@std@@@std@@$0A@@?$unique_ptr@V_Facet_base@std@@U?$default_delete@V_Facet_base@std@@@2@@std@@QEAA@PEAV_Facet_base@1@@Z 0000000140032dc8     Tilemap.obj
 0003:00006ddc       $unwind$??$_Emplace_back_with_unused_capacity@AEBVObj@@@?$vector@VObj@@V?$allocator@VObj@@@std@@@std@@AEAAAEAVObj@@AEBV2@@Z 0000000140032ddc     Tilemap.obj
 0003:00006df0       $unwind$??$_Emplace_reallocate@AEBVObj@@@?$vector@VObj@@V?$allocator@VObj@@@std@@@std@@AEAAPEAVObj@@QEAV2@AEBV2@@Z 0000000140032df0     Tilemap.obj
 0003:00006e0a       $cppxdata$??$_Emplace_reallocate@AEBVObj@@@?$vector@VObj@@V?$allocator@VObj@@@std@@@std@@AEAAPEAVObj@@QEAV2@AEBV2@@Z 0000000140032e0a     Tilemap.obj
 0003:00006e18       $stateUnwindMap$??$_Emplace_reallocate@AEBVObj@@@?$vector@VObj@@V?$allocator@VObj@@@std@@@std@@AEAAPEAVObj@@QEAV2@AEBV2@@Z 0000000140032e18     Tilemap.obj
 0003:00006e1b       $tryMap$??$_Emplace_reallocate@AEBVObj@@@?$vector@VObj@@V?$allocator@VObj@@@std@@@std@@AEAAPEAVObj@@QEAV2@AEBV2@@Z 0000000140032e1b     Tilemap.obj
 0003:00006e23       $handlerMap$??$_Emplace_reallocate@AEBVObj@@@?$vector@VObj@@V?$allocator@VObj@@@std@@@std@@AEAAPEAVObj@@QEAV2@AEBV2@@Z 0000000140032e23     Tilemap.obj
 0003:00006e2a       $ip2state$??$_Emplace_reallocate@AEBVObj@@@?$vector@VObj@@V?$allocator@VObj@@@std@@@std@@AEAAPEAVObj@@QEAV2@AEBV2@@Z 0000000140032e2a     Tilemap.obj
 0003:00006e34       $unwind$?catch$0@?0???$_Emplace_reallocate@AEBVObj@@@?$vector@VObj@@V?$allocator@VObj@@@std@@@std@@AEAAPEAVObj@@QEAV2@AEBV2@@Z@4HA 0000000140032e34     Tilemap.obj
 0003:00006e44       $unwind$??$exchange@PEAV_Facet_base@std@@$$T@std@@YAPEAV_Facet_base@0@AEAPEAV10@$$QEA$$T@Z 0000000140032e44     Tilemap.obj
 0003:00006e58       $unwind$??$?0AEAPEAV_Facet_base@std@@@?$_Compressed_pair@U?$default_delete@V_Facet_base@std@@@std@@PEAV_Facet_base@2@$00@std@@QEAA@U_Zero_then_variadic_args_t@1@AEAPEAV_Facet_base@1@@Z 0000000140032e58     Tilemap.obj
 0003:00006e6c       $unwind$??$_Construct_in_place@VObj@@AEBV1@@std@@YAXAEAVObj@@AEBV1@@Z 0000000140032e6c     Tilemap.obj
 0003:00006e80       $unwind$??$_Unfancy@VObj@@@std@@YAPEAVObj@@PEAV1@@Z 0000000140032e80     Tilemap.obj
 0003:00006e94       $unwind$??$construct@VObj@@AEBV1@@?$_Default_allocator_traits@V?$allocator@VObj@@@std@@@std@@SAXAEAV?$allocator@VObj@@@1@QEAVObj@@AEBV3@@Z 0000000140032e94     Tilemap.obj
 0003:00006ea8       $unwind$??$_Uninitialized_move@PEAVObj@@V?$allocator@VObj@@@std@@@std@@YAPEAVObj@@QEAV1@0PEAV1@AEAV?$allocator@VObj@@@0@@Z 0000000140032ea8     Tilemap.obj
 0003:00006ec6       $cppxdata$??$_Uninitialized_move@PEAVObj@@V?$allocator@VObj@@@std@@@std@@YAPEAVObj@@QEAV1@0PEAV1@AEAV?$allocator@VObj@@@0@@Z 0000000140032ec6     Tilemap.obj
 0003:00006ecf       $stateUnwindMap$??$_Uninitialized_move@PEAVObj@@V?$allocator@VObj@@@std@@@std@@YAPEAVObj@@QEAV1@0PEAV1@AEAV?$allocator@VObj@@@0@@Z 0000000140032ecf     Tilemap.obj
 0003:00006ed5       $ip2state$??$_Uninitialized_move@PEAVObj@@V?$allocator@VObj@@@std@@@std@@YAPEAVObj@@QEAV1@0PEAV1@AEAV?$allocator@VObj@@@0@@Z 0000000140032ed5     Tilemap.obj
 0003:00006ed8       $unwind$?dtor$0@?0???$_Uninitialized_move@PEAVObj@@V?$allocator@VObj@@@std@@@std@@YAPEAVObj@@QEAV1@0PEAV1@AEAV?$allocator@VObj@@@0@@Z@4HA 0000000140032ed8     Tilemap.obj
 0003:00006ee8       $unwind$??$_Get_size_of_n@$0DI@@std@@YA_K_K@Z 0000000140032ee8     Tilemap.obj
 0003:00006efc       $unwind$??$addressof@VObj@@@std@@YAPEAVObj@@AEAV1@@Z 0000000140032efc     Tilemap.obj
 0003:00006f10       $unwind$??$_Get_unwrapped@AEBQEAVObj@@@std@@YA?A_TAEBQEAVObj@@@Z 0000000140032f10     Tilemap.obj
 0003:00006f24       $unwind$??$_Copy_memmove@PEAVObj@@PEAV1@@std@@YAPEAVObj@@PEAV1@00@Z 0000000140032f24     Tilemap.obj
 0003:00006f38       $unwind$??0?$_Uninitialized_backout_al@V?$allocator@VObj@@@std@@@std@@QEAA@PEAVObj@@AEAV?$allocator@VObj@@@1@@Z 0000000140032f38     Tilemap.obj
 0003:00006f4c       $unwind$??1?$_Uninitialized_backout_al@V?$allocator@VObj@@@std@@@std@@QEAA@XZ 0000000140032f4c     Tilemap.obj
 0003:00006f60       $unwind$?_Release@?$_Uninitialized_backout_al@V?$allocator@VObj@@@std@@@std@@QEAAPEAVObj@@XZ 0000000140032f60     Tilemap.obj
 0003:00006f74       $unwind$?__autoclassinit2@?$_Uninitialized_backout_al@V?$allocator@VObj@@@std@@@std@@QEAAX_K@Z 0000000140032f74     Tilemap.obj
 0003:00006f88       $unwind$??$_Emplace_back@VObj@@@?$_Uninitialized_backout_al@V?$allocator@VObj@@@std@@@std@@QEAAX$$QEAVObj@@@Z 0000000140032f88     Tilemap.obj
 0003:00006f9c       $unwind$??$_To_address@PEAVObj@@@std@@YA?A_PAEBQEAVObj@@@Z 0000000140032f9c     Tilemap.obj
 0003:00006fb0       $unwind$??$construct@VObj@@V1@@?$_Default_allocator_traits@V?$allocator@VObj@@@std@@@std@@SAXAEAV?$allocator@VObj@@@1@QEAVObj@@$$QEAV3@@Z 0000000140032fb0     Tilemap.obj
 0003:00006fc4       $unwind$??0Timelimit@@QEAA@XZ 0000000140032fc4     Timelimit.obj
 0003:00006fd8       $unwind$?resetTicks@Timelimit@@QEAAXXZ 0000000140032fd8     Timelimit.obj
 0003:00006fec       $unwind$?getTicks@Timelimit@@QEBAHXZ 0000000140032fec     Timelimit.obj
 0003:00007000       $unwind$??0UI@@QEAA@HHPEAU_TTF_Font@@@Z 0000000140033000     UI.obj
 0003:00007014       $unwind$??0UI@@QEAA@PEBDHHPEAU_TTF_Font@@@Z 0000000140033014     UI.obj
 0003:00007028       $unwind$??1UI@@QEAA@XZ     0000000140033028     UI.obj
 0003:0000703c       $unwind$?update@UI@@QEAAXPEBD@Z 000000014003303c     UI.obj
 0003:00007050       $unwind$?renderer@UI@@QEAAXPEAUSDL_Renderer@@@Z 0000000140033050     UI.obj
 0003:00007064       $unwind$??0V2D@@QEAA@XZ    0000000140033064     V2D.obj
 0003:00007078       $unwind$??0V2D@@QEAA@HH@Z  0000000140033078     V2D.obj
 0003:0000708c       $unwind$?Add@V2D@@QEAAAEAV1@AEBV1@@Z 000000014003308c     V2D.obj
 0003:000070a0       $unwind$?Sub@V2D@@QEAAAEAV1@AEBV1@@Z 00000001400330a0     V2D.obj
 0003:000070b4       $unwind$?Div@V2D@@QEAAAEAV1@AEBV1@@Z 00000001400330b4     V2D.obj
 0003:000070c8       $unwind$?Mul@V2D@@QEAAAEAV1@AEBV1@@Z 00000001400330c8     V2D.obj
 0003:000070dc       $unwind$??YV2D@@QEAAAEAV0@AEBV0@@Z 00000001400330dc     V2D.obj
 0003:000070f0       $unwind$??ZV2D@@QEAAAEAV0@AEBV0@@Z 00000001400330f0     V2D.obj
 0003:00007104       $unwind$??_0V2D@@QEAAAEAV0@AEBV0@@Z 0000000140033104     V2D.obj
 0003:00007118       $unwind$??XV2D@@QEAAAEAV0@AEBV0@@Z 0000000140033118     V2D.obj
 0003:0000712c       $unwind$SDL_main           000000014003312c     WizardTime.obj
 0003:00007148       $unwind$?__autoclassinit2@Game@@QEAAX_K@Z 0000000140033148     WizardTime.obj
 0003:0000715c       $unwind$?_Facet_Register@std@@YAXPEAV_Facet_base@1@@Z 000000014003315c     msvcprtd:locale0_implib.obj
 0003:0000716d       $cppxdata$?_Facet_Register@std@@YAXPEAV_Facet_base@1@@Z 000000014003316d     msvcprtd:locale0_implib.obj
 0003:00007176       $stateUnwindMap$?_Facet_Register@std@@YAXPEAV_Facet_base@1@@Z 0000000140033176     msvcprtd:locale0_implib.obj
 0003:0000717c       $ip2state$?_Facet_Register@std@@YAXPEAV_Facet_base@1@@Z 000000014003317c     msvcprtd:locale0_implib.obj
 0003:00007184       $unwind$?dtor$0@?0??_Facet_Register@std@@YAXPEAV_Facet_base@1@@Z@4HA 0000000140033184     msvcprtd:locale0_implib.obj
 0003:0000718c       $unwind$??1_Fac_node@std@@QEAA@XZ 000000014003318c     msvcprtd:locale0_implib.obj
 0003:00007194       $unwind$??2_Fac_node@std@@SAPEAX_K@Z 0000000140033194     msvcprtd:locale0_implib.obj
 0003:0000719c       $unwind$??3_Fac_node@std@@SAXPEAX@Z 000000014003319c     msvcprtd:locale0_implib.obj
 0003:000071a4       $unwind$??_G_Fac_node@std@@QEAAPEAXI@Z 00000001400331a4     msvcprtd:locale0_implib.obj
 0003:000071ac       $unwind$??1_Fac_tidy_reg_t@std@@QEAA@XZ 00000001400331ac     msvcprtd:locale0_implib.obj
 0003:000071b4       $unwind$??__F_Fac_tidy_reg@std@@YAXXZ 00000001400331b4     msvcprtd:locale0_implib.obj
 0003:000071bc       $unwind$??__F_Fac_tidy_reg@std@@YAXXZ 00000001400331bc     msvcprtd:locale0_implib.obj
 0003:000071c4       $unwind$??2@YAPEAX_K@Z     00000001400331c4     MSVCRTD:new_scalar.obj
 0003:000071cc       $unwind$??3@YAXPEAX_K@Z    00000001400331cc     MSVCRTD:delete_scalar_size.obj
 0003:000071d4       $unwind$_RTC_CheckStackVars 00000001400331d4     MSVCRTD:stack.obj
 0003:000071e8       $chain$0$_RTC_CheckStackVars 00000001400331e8     MSVCRTD:stack.obj
 0003:00007200       $chain$1$_RTC_CheckStackVars 0000000140033200     MSVCRTD:stack.obj
 0003:00007214       $unwind$_RTC_CheckStackVars2 0000000140033214     MSVCRTD:stack.obj
 0003:00007224       $chain$1$_RTC_CheckStackVars2 0000000140033224     MSVCRTD:stack.obj
 0003:00007240       $chain$2$_RTC_CheckStackVars2 0000000140033240     MSVCRTD:stack.obj
 0003:00007258       $chain$3$_RTC_CheckStackVars2 0000000140033258     MSVCRTD:stack.obj
 0003:00007270       $chain$4$_RTC_CheckStackVars2 0000000140033270     MSVCRTD:stack.obj
 0003:00007284       $chain$5$_RTC_CheckStackVars2 0000000140033284     MSVCRTD:stack.obj
 0003:00007298       $chain$6$_RTC_CheckStackVars2 0000000140033298     MSVCRTD:stack.obj
 0003:000072ac       $unwind$_RTC_AllocaHelper  00000001400332ac     MSVCRTD:stack.obj
 0003:000072b4       $chain$0$_RTC_AllocaHelper 00000001400332b4     MSVCRTD:stack.obj
 0003:000072cc       $chain$1$_RTC_AllocaHelper 00000001400332cc     MSVCRTD:stack.obj
 0003:000072e0       $unwind$_RTC_Shutdown      00000001400332e0     MSVCRTD:init.obj
 0003:000072e8       $unwind$_RTC_InitBase      00000001400332e8     MSVCRTD:init.obj
 0003:000072f0       $unwind$__CheckForDebuggerJustMyCode 00000001400332f0     MSVCRTD:debugger_jmc.obj
 0003:000072f8       $unwind$__GSHandlerCheck_EH4 00000001400332f8     MSVCRTD:gshandlereh4.obj
 0003:00007300       $xdatasym                  0000000140033300     MSVCRTD:amdsecgs.obj
 0003:00007304       $unwind$__GSHandlerCheckCommon 0000000140033304     MSVCRTD:gshandler.obj
 0003:0000730c       $unwind$__GSHandlerCheck   000000014003330c     MSVCRTD:gshandler.obj
 0003:00007314       $unwind$??_Gtype_info@@UEAAPEAXI@Z 0000000140033314     MSVCRTD:std_type_info_static.obj
 0003:0000731c       $unwind$?configure_argv@__scrt_narrow_argv_policy@@SAHXZ 000000014003331c     MSVCRTD:exe_main.obj
 0003:00007324       $unwind$?initialize_environment@__scrt_narrow_environment_policy@@SAHXZ 0000000140033324     MSVCRTD:exe_main.obj
 0003:0000732c       $unwind$?set_app_type@__scrt_main_policy@@SAXXZ 000000014003332c     MSVCRTD:exe_main.obj
 0003:00007334       $unwind$?set_fmode@__scrt_file_policy@@SAXXZ 0000000140033334     MSVCRTD:exe_main.obj
 0003:0000733c       $unwind$?set_commode@__scrt_file_policy@@SAXXZ 000000014003333c     MSVCRTD:exe_main.obj
 0003:00007344       $unwind$?invoke_main@@YAHXZ 0000000140033344     MSVCRTD:exe_main.obj
 0003:0000734c       $unwind$?pre_c_initialization@@YAHXZ 000000014003334c     MSVCRTD:exe_main.obj
 0003:00007354       $unwind$?post_pgo_initialization@@YAHXZ 0000000140033354     MSVCRTD:exe_main.obj
 0003:0000735c       $unwind$?pre_cpp_initialization@@YAXXZ 000000014003335c     MSVCRTD:exe_main.obj
 0003:00007364       $unwind$?__scrt_common_main_seh@@YAHXZ 0000000140033364     MSVCRTD:exe_main.obj
 0003:00007388       $unwind$?filt$0@?0??__scrt_common_main_seh@@YAHXZ@4HA 0000000140033388     MSVCRTD:exe_main.obj
 0003:00007390       $unwind$?__scrt_common_main@@YAHXZ 0000000140033390     MSVCRTD:exe_main.obj
 0003:00007398       $unwind$mainCRTStartup     0000000140033398     MSVCRTD:exe_main.obj
 0003:000073a0       $unwind$atexit             00000001400333a0     MSVCRTD:utility.obj
 0003:000073a8       $unwind$_onexit            00000001400333a8     MSVCRTD:utility.obj
 0003:000073b0       $unwind$at_quick_exit      00000001400333b0     MSVCRTD:utility.obj
 0003:000073b8       $unwind$__scrt_is_nonwritable_in_current_image 00000001400333b8     MSVCRTD:utility.obj
 0003:000073dc       $unwind$__scrt_is_nonwritable_in_current_image$filt$0 00000001400333dc     MSVCRTD:utility.obj
 0003:000073e4       $unwind$__scrt_acquire_startup_lock 00000001400333e4     MSVCRTD:utility.obj
 0003:000073ec       $unwind$__scrt_release_startup_lock 00000001400333ec     MSVCRTD:utility.obj
 0003:000073f4       $unwind$__scrt_initialize_crt 00000001400333f4     MSVCRTD:utility.obj
 0003:000073fc       $unwind$__scrt_uninitialize_crt 00000001400333fc     MSVCRTD:utility.obj
 0003:00007404       $unwind$__scrt_initialize_onexit_tables 0000000140033404     MSVCRTD:utility.obj
 0003:00007414       $unwind$__scrt_dllmain_exception_filter 0000000140033414     MSVCRTD:utility.obj
 0003:0000741c       $unwind$__scrt_dllmain_before_initialize_c 000000014003341c     MSVCRTD:utility.obj
 0003:00007424       $unwind$__scrt_dllmain_after_initialize_c 0000000140033424     MSVCRTD:utility.obj
 0003:0000742c       $unwind$__scrt_dllmain_uninitialize_c 000000014003342c     MSVCRTD:utility.obj
 0003:00007434       $unwind$__scrt_dllmain_uninitialize_critical 0000000140033434     MSVCRTD:utility.obj
 0003:0000743c       $unwind$__scrt_dllmain_crt_thread_attach 000000014003343c     MSVCRTD:utility.obj
 0003:00007444       $unwind$__scrt_dllmain_crt_thread_detach 0000000140033444     MSVCRTD:utility.obj
 0003:0000744c       $unwind$?is_potentially_valid_image_base@@YA_NQEAX@Z 000000014003344c     MSVCRTD:utility.obj
 0003:00007454       $unwind$?find_pe_section@@YAPEAU_IMAGE_SECTION_HEADER@@QEAE_K@Z 0000000140033454     MSVCRTD:utility.obj
 0003:0000745c       $unwind$ReadNoFence64      000000014003345c     MSVCRTD:guard_support.obj
 0003:00007464       $unwind$ReadPointerNoFence 0000000140033464     MSVCRTD:guard_support.obj
 0003:0000746c       $unwind$__castguard_set_user_handler 000000014003346c     MSVCRTD:guard_support.obj
 0003:00007474       $unwind$_guard_icall_checks_enforced 0000000140033474     MSVCRTD:guard_support.obj
 0003:0000747c       $unwind$__castguard_compat_check 000000014003347c     MSVCRTD:guard_support.obj
 0003:00007484       $unwind$__castguard_check_failure_os_handled_wrapper 0000000140033484     MSVCRTD:guard_support.obj
 0003:0000748c       $unwind$__castguard_check_failure_user_handled_wrapper 000000014003348c     MSVCRTD:guard_support.obj
 0003:00007494       $unwind$__castguard_check_failure_debugbreak 0000000140033494     MSVCRTD:guard_support.obj
 0003:0000749c       $unwind$__castguard_check_failure_fastfail 000000014003349c     MSVCRTD:guard_support.obj
 0003:000074a4       $unwind$__castguard_check_failure_os_handled 00000001400334a4     MSVCRTD:guard_support.obj
 0003:000074ac       $unwind$__castguard_check_failure_user_handled 00000001400334ac     MSVCRTD:guard_support.obj
 0003:000074b4       $unwind$__castguard_slow_path_compat_check 00000001400334b4     MSVCRTD:guard_support.obj
 0003:000074bc       $unwind$__castguard_slow_path_check_debugbreak 00000001400334bc     MSVCRTD:guard_support.obj
 0003:000074c4       $unwind$__castguard_slow_path_check_fastfail 00000001400334c4     MSVCRTD:guard_support.obj
 0003:000074cc       $unwind$__castguard_slow_path_check_os_handled 00000001400334cc     MSVCRTD:guard_support.obj
 0003:000074d4       $unwind$__castguard_slow_path_check_user_handled 00000001400334d4     MSVCRTD:guard_support.obj
 0003:000074dc       $unwind$??0bad_alloc@std@@QEAA@XZ 00000001400334dc     MSVCRTD:throw_bad_alloc.obj
 0003:000074e4       $unwind$?__scrt_throw_std_bad_alloc@@YAXXZ 00000001400334e4     MSVCRTD:throw_bad_alloc.obj
 0003:000074ec       $unwind$?__scrt_throw_std_bad_array_new_length@@YAXXZ 00000001400334ec     MSVCRTD:throw_bad_alloc.obj
 0003:000074f4       $unwind$??3@YAXPEAX@Z      00000001400334f4     MSVCRTD:delete_scalar.obj
 0003:000074fc       $unwind$_RTC_UninitUse     00000001400334fc     MSVCRTD:error.obj
 0003:00007518       $unwind$?_RTC_StackFailure@@YAXPEAXPEBD@Z 0000000140033518     MSVCRTD:error.obj
 0003:00007538       $unwind$?_RTC_AllocaFailure@@YAXPEAXPEAU_RTC_ALLOCA_NODE@@H@Z 0000000140033538     MSVCRTD:error.obj
 0003:00007554       $chain$0$?_RTC_AllocaFailure@@YAXPEAXPEAU_RTC_ALLOCA_NODE@@H@Z 0000000140033554     MSVCRTD:error.obj
 0003:0000756c       $chain$1$?_RTC_AllocaFailure@@YAXPEAXPEAU_RTC_ALLOCA_NODE@@H@Z 000000014003356c     MSVCRTD:error.obj
 0003:00007580       $unwind$_vsprintf_s_l      0000000140033580     MSVCRTD:error.obj
 0003:00007598       $unwind$sprintf_s          0000000140033598     MSVCRTD:error.obj
 0003:000075a0       $unwind$?notify_debugger@@YAXAEBUtagEXCEPTION_VISUALCPP_DEBUG_INFO@@@Z 00000001400335a0     MSVCRTD:error.obj
 0003:000075c4       $unwind$?filt$0@?0??notify_debugger@@YAXAEBUtagEXCEPTION_VISUALCPP_DEBUG_INFO@@@Z@4HA 00000001400335c4     MSVCRTD:error.obj
 0003:000075cc       $unwind$?DebuggerProbe@@YA_NK@Z 00000001400335cc     MSVCRTD:error.obj
 0003:000075d4       $unwind$?DebuggerRuntime@@YA_NKHPEAXPEB_W@Z 00000001400335d4     MSVCRTD:error.obj
 0003:000075dc       $unwind$?failwithmessage@@YAXPEAXHHPEBD@Z 00000001400335dc     MSVCRTD:error.obj
 0003:00007604       $unwind$?_getMemBlockDataString@@YAXPEAD0PEBD_K@Z 0000000140033604     MSVCRTD:error.obj
 0003:00007618       $chain$3$?_getMemBlockDataString@@YAXPEAD0PEBD_K@Z 0000000140033618     MSVCRTD:error.obj
 0003:0000763c       $chain$4$?_getMemBlockDataString@@YAXPEAD0PEBD_K@Z 000000014003363c     MSVCRTD:error.obj
 0003:00007650       $unwind$__report_securityfailure 0000000140033650     MSVCRTD:gs_report.obj
 0003:00007658       $unwind$__report_securityfailureEx 0000000140033658     MSVCRTD:gs_report.obj
 0003:00007660       $unwind$__report_rangecheckfailure 0000000140033660     MSVCRTD:gs_report.obj
 0003:00007668       $unwind$__report_gsfailure 0000000140033668     MSVCRTD:gs_report.obj
 0003:00007670       $unwind$capture_current_context 0000000140033670     MSVCRTD:gs_report.obj
 0003:00007678       $unwind$capture_previous_context 0000000140033678     MSVCRTD:gs_report.obj
 0003:00007680       $unwind$__raise_securityfailure 0000000140033680     MSVCRTD:gs_report.obj
 0003:00007688       $unwind$__security_init_cookie 0000000140033688     MSVCRTD:gs_support.obj
 0003:00007690       $unwind$__get_entropy      0000000140033690     MSVCRTD:gs_support.obj
 0003:00007698       $unwind$?__scrt_initialize_type_info@@YAXXZ 0000000140033698     MSVCRTD:tncleanup.obj
 0003:000076a0       $unwind$?__scrt_uninitialize_type_info@@YAXXZ 00000001400336a0     MSVCRTD:tncleanup.obj
 0003:000076a8       $unwind$__scrt_initialize_default_local_stdio_options 00000001400336a8     MSVCRTD:default_local_stdio_options.obj
 0003:000076b0       $unwind$__scrt_is_user_matherr_present 00000001400336b0     MSVCRTD:matherr_detection.obj
 0003:000076b8       $unwind$__scrt_get_show_window_mode 00000001400336b8     MSVCRTD:utility_desktop.obj
 0003:000076c8       $unwind$__scrt_is_managed_app 00000001400336c8     MSVCRTD:utility_desktop.obj
 0003:000076d0       $unwind$__scrt_initialize_mta 00000001400336d0     MSVCRTD:utility_desktop.obj
 0003:000076d8       $unwind$__scrt_set_unhandled_exception_filter 00000001400336d8     MSVCRTD:utility_desktop.obj
 0003:000076e0       $unwind$__scrt_fastfail    00000001400336e0     MSVCRTD:utility_desktop.obj
 0003:000076f0       $unwind$__scrt_unhandled_exception_filter 00000001400336f0     MSVCRTD:utility_desktop.obj
 0003:000076f8       $unwind$_RTC_Initialize    00000001400336f8     MSVCRTD:initsect.obj
 0003:00007708       $unwind$_RTC_Terminate     0000000140033708     MSVCRTD:initsect.obj
 0003:00007718       $unwind$__isa_available_init 0000000140033718     MSVCRTD:cpu_disp.obj
 0003:0000772c       $unwind$__scrt_is_ucrt_dll_in_use 000000014003372c     MSVCRTD:ucrt_detection.obj
 0003:00007738       $xdatasym                  0000000140033738     MSVCRTD:guard_dispatch.obj
 0003:00007740       $xdatasym                  0000000140033740     MSVCRTD:guard_xfg_dispatch.obj
 0003:00007744       $unwind$?_RTC_GetSrcLine@@YAHPEAEPEA_WKPEAH1K@Z 0000000140033744     MSVCRTD:pdblkup.obj
 0003:00007760       $unwind$?GetPdbDllFromInstallPath@@YAPEAUHINSTANCE__@@XZ 0000000140033760     MSVCRTD:pdblkup.obj
 0003:00007788       $unwind$?GetPdbDllPathFromFilePath@@YAHPEB_WPEA_W_K@Z 0000000140033788     MSVCRTD:pdblkup.obj
 0003:000077a4       $unwind$?GetPdbDll@@YAPEAUHINSTANCE__@@XZ 00000001400337a4     MSVCRTD:pdblkup.obj
 0003:000077b8       $unwind$main_getcmdline    00000001400337b8     SDL2main:SDL_windows_main.obj
 0004:00000718       ?_Fac_head@std@@3PEAU_Fac_node@1@EA 0000000140034718     msvcprtd:locale0_implib.obj
 0004:00000720       ?_Fac_tidy_reg@std@@3U_Fac_tidy_reg_t@1@B 0000000140034720     msvcprtd:locale0_implib.obj
 0004:00000722       ?init@?1??_RTC_InitBase@@9@4_NA 0000000140034722     MSVCRTD:init.obj
 0004:00000738       ?is_initialized_as_dll@@3_NA 0000000140034738     MSVCRTD:utility.obj
 0004:00000739       ?module_local_atexit_table_initialized@@3_NA 0000000140034739     MSVCRTD:utility.obj
 0004:00000740       ?module_local_atexit_table@@3U_onexit_table_t@@A 0000000140034740     MSVCRTD:utility.obj
 0004:00000758       ?module_local_at_quick_exit_table@@3U_onexit_table_t@@A 0000000140034758     MSVCRTD:utility.obj
 0004:000007a0       ?_RTC_ErrorReportFunc@@3P6AHHPEBDH00ZZEA 00000001400347a0     MSVCRTD:userapi.obj
 0004:000007a8       ?_RTC_ErrorReportFuncW@@3P6AHHPEB_WH00ZZEA 00000001400347a8     MSVCRTD:userapi.obj
 0004:000007c0       GS_ExceptionRecord         00000001400347c0     MSVCRTD:gs_report.obj
 0004:00000860       GS_ContextRecord           0000000140034860     MSVCRTD:gs_report.obj
 0004:00000e80       ?mspdb@@3PEAUHINSTANCE__@@EA 0000000140034e80     MSVCRTD:pdblkup.obj
 0004:00000e89       ?alreadyTried@?1??GetPdbDll@@YAPEAUHINSTANCE__@@XZ@4_NA 0000000140034e89     MSVCRTD:pdblkup.obj
 0004:00000e8a       ?PDBOK@?1??_RTC_GetSrcLine@@YAHPEAEPEA_WKPEAH1K@Z@4_NA 0000000140034e8a     MSVCRTD:pdblkup.obj
 0006:0000151c       .idata$6                   000000014003a51c     SDL2_image:SDL2_image.dll
 0006:0000157c       .idata$6                   000000014003a57c     SDL2_ttf:SDL2_ttf.dll
 0006:000016f6       .idata$6                   000000014003a6f6     SDL2:SDL2.dll
 0006:000024ec       .idata$6                   000000014003b4ec     msvcprtd:MSVCP140D.dll
 0006:00002660       .idata$6                   000000014003b660     vcruntimed:VCRUNTIME140_1D.dll
 0006:00002674       .idata$6                   000000014003b674     vcruntimed:VCRUNTIME140D.dll
 0006:000029f0       .idata$6                   000000014003b9f0     ucrtd:ucrtbased.dll
 0006:00002cae       .idata$6                   000000014003bcae     kernel32:KERNEL32.dll
 0006:00002cd2       .idata$6                   000000014003bcd2     shell32:SHELL32.dll
 0007:00000000       __2972590E_concurrencysal@h 000000014003d000     Endscreen.obj
 0007:00000001       __196CC136_sal@h           000000014003d001     Endscreen.obj
 0007:00000002       __C395F66A_vadefs@h        000000014003d002     Endscreen.obj
 0007:00000003       __D5C25611_vcruntime@h     000000014003d003     Endscreen.obj
 0007:00000004       __311F130C_xkeycheck@h     000000014003d004     Endscreen.obj
 0007:00000005       __AEBEEEE9_yvals_core@h    000000014003d005     Endscreen.obj
 0007:00000006       __05EEB633_limits@h        000000014003d006     Endscreen.obj
 0007:00000007       __7CE37BCF_climits         000000014003d007     Endscreen.obj
 0007:00000008       __1B0272D9_corecrt@h       000000014003d008     Endscreen.obj
 0007:00000009       __D5F74309_vcruntime_new@h 000000014003d009     Endscreen.obj
 0007:0000000a       __ED298667_vcruntime_new_debug@h 000000014003d00a     Endscreen.obj
 0007:0000000b       __935DC21B_crtdbg@h        000000014003d00b     Endscreen.obj
 0007:0000000c       __B40C025A_crtdefs@h       000000014003d00c     Endscreen.obj
 0007:0000000d       __97CA0262_use_ansi@h      000000014003d00d     Endscreen.obj
 0007:0000000e       __4E4CEF82_yvals@h         000000014003d00e     Endscreen.obj
 0007:0000000f       __BB16330F_corecrt_math@h  000000014003d00f     Endscreen.obj
 0007:00000010       __3BF2A406_math@h          000000014003d010     Endscreen.obj
 0007:00000011       __45DED006_corecrt_malloc@h 000000014003d011     Endscreen.obj
 0007:00000012       __13F5961F_stddef@h        000000014003d012     Endscreen.obj
 0007:00000013       __FD6DBD68_corecrt_search@h 000000014003d013     Endscreen.obj
 0007:00000014       __E2E33A61_corecrt_wstdlib@h 000000014003d014     Endscreen.obj
 0007:00000015       __6E5ACABA_stdlib@h        000000014003d015     Endscreen.obj
 0007:00000016       __F80C593D_cstdlib         000000014003d016     Endscreen.obj
 0007:00000017       __6CC4302B_xtr1common      000000014003d017     Endscreen.obj
 0007:00000018       __7178C802_intrin0@inl@h   000000014003d018     Endscreen.obj
 0007:00000019       __AD21BB51_intrin0@h       000000014003d019     Endscreen.obj
 0007:0000001a       __7BD6CF81_cmath           000000014003d01a     Endscreen.obj
 0007:0000001b       __44420885_corecrt_stdio_config@h 000000014003d01b     Endscreen.obj
 0007:0000001c       __AB601D8D_corecrt_wstdio@h 000000014003d01c     Endscreen.obj
 0007:0000001d       __C1EC35D3_stdio@h         000000014003d01d     Endscreen.obj
 0007:0000001e       __FAE305CF_cstdio          000000014003d01e     Endscreen.obj
 0007:0000001f       __61CC25A1_errno@h         000000014003d01f     Endscreen.obj
 0007:00000020       __4BC88476_vcruntime_string@h 000000014003d020     Endscreen.obj
 0007:00000021       __E4C945B4_corecrt_memcpy_s@h 000000014003d021     Endscreen.obj
 0007:00000022       __8EAFF484_corecrt_memory@h 000000014003d022     Endscreen.obj
 0007:00000023       __6490AEC5_corecrt_wstring@h 000000014003d023     Endscreen.obj
 0007:00000024       __E8295E1E_string@h        000000014003d024     Endscreen.obj
 0007:00000025       __B49EF1DD_cstring         000000014003d025     Endscreen.obj
 0007:00000026       __EF1F6BBA_corecrt_wconio@h 000000014003d026     Endscreen.obj
 0007:00000027       __74484FB3_corecrt_wctype@h 000000014003d027     Endscreen.obj
 0007:00000028       __3D1D430C_corecrt_wdirect@h 000000014003d028     Endscreen.obj
 0007:00000029       __8ECB7138_corecrt_share@h 000000014003d029     Endscreen.obj
 0007:0000002a       __DB7FEBA6_corecrt_wio@h   000000014003d02a     Endscreen.obj
 0007:0000002b       __9A9F0068_corecrt_wprocess@h 000000014003d02b     Endscreen.obj
 0007:0000002c       __369A9BC3_corecrt_wtime@h 000000014003d02c     Endscreen.obj
 0007:0000002d       __CE789B9D_types@h         000000014003d02d     Endscreen.obj
 0007:0000002e       __9901C817_stat@h          000000014003d02e     Endscreen.obj
 0007:0000002f       __3FCAD62E_wchar@h         000000014003d02f     Endscreen.obj
 0007:00000030       __6068D39C_cwchar          000000014003d030     Endscreen.obj
 0007:00000031       __23A856AA_iosfwd          000000014003d031     Endscreen.obj
 0007:00000032       __5DC78390_cstddef         000000014003d032     Endscreen.obj
 0007:00000033       __33B42F3D_initializer_list 000000014003d033     Endscreen.obj
 0007:00000034       __BB98980C_stdint@h        000000014003d034     Endscreen.obj
 0007:00000035       __4552B840_cstdint         000000014003d035     Endscreen.obj
 0007:00000036       __7FB6D5C7_type_traits     000000014003d036     Endscreen.obj
 0007:00000037       __CF01DCB6_utility         000000014003d037     Endscreen.obj
 0007:00000038       __12DC71E1___msvc_iter_core@hpp 000000014003d038     Endscreen.obj
 0007:00000039       __D740E0F1_xutility        000000014003d039     Endscreen.obj
 0007:0000003a       __C6EC57B1_iterator        000000014003d03a     Endscreen.obj
 0007:0000003b       __F7972D0B_share@h         000000014003d03b     Endscreen.obj
 0007:0000003c       __3D410F40___msvc_system_error_abi@hpp 000000014003d03c     Endscreen.obj
 0007:0000003d       __67C27134_cerrno          000000014003d03d     Endscreen.obj
 0007:0000003e       __FA77ED4C_malloc@h        000000014003d03e     Endscreen.obj
 0007:0000003f       __89766DA4_corecrt_terminate@h 000000014003d03f     Endscreen.obj
 0007:00000040       __27A4BD10_eh@h            000000014003d040     Endscreen.obj
 0007:00000041       __E5C78335_vcruntime_exception@h 000000014003d041     Endscreen.obj
 0007:00000042       __7C536CCC_exception       000000014003d042     Endscreen.obj
 0007:00000043       __B9985323_float@h         000000014003d043     Endscreen.obj
 0007:00000044       __89A7CE48_cfloat          000000014003d044     Endscreen.obj
 0007:00000045       __98438E05_isa_availability@h 000000014003d045     Endscreen.obj
 0007:00000046       __EF41832C_limits          000000014003d046     Endscreen.obj
 0007:00000047       __0DB0C2E5_new             000000014003d047     Endscreen.obj
 0007:00000048       __765FE01A_xatomic@h       000000014003d048     Endscreen.obj
 0007:00000049       __A594BF75_xmemory         000000014003d049     Endscreen.obj
 0007:0000004a       __DFFCB714___msvc_sanitizer_annotate_container@hpp 000000014003d04a     Endscreen.obj
 0007:0000004b       __D14739E9_xstring         000000014003d04b     Endscreen.obj
 0007:0000004c       __F51D5691_stdexcept       000000014003d04c     Endscreen.obj
 0007:0000004d       __ED2630B9_xcall_once@h    000000014003d04d     Endscreen.obj
 0007:0000004e       __E6D9FA8D_xerrc@h         000000014003d04e     Endscreen.obj
 0007:0000004f       __0A9237D2_time@h          000000014003d04f     Endscreen.obj
 0007:00000050       __BD655389_ctime           000000014003d050     Endscreen.obj
 0007:00000051       __618403B0_xtimec@h        000000014003d051     Endscreen.obj
 0007:00000052       __F68435D1_xthreads@h      000000014003d052     Endscreen.obj
 0007:00000053       __8474DFEE_atomic          000000014003d053     Endscreen.obj
 0007:00000054       __527B2299_system_error    000000014003d054     Endscreen.obj
 0007:00000055       __0632977E_vcruntime_typeinfo@h 000000014003d055     Endscreen.obj
 0007:00000056       __A79F13E8_typeinfo        000000014003d056     Endscreen.obj
 0007:00000057       __53EF8FA2_memory          000000014003d057     Endscreen.obj
 0007:00000058       __7FAAD8AD_xfacet          000000014003d058     Endscreen.obj
 0007:00000059       __53FF2065___msvc_xlocinfo_types@hpp 000000014003d059     Endscreen.obj
 0007:0000005a       __1EC467ED_ctype@h         000000014003d05a     Endscreen.obj
 0007:0000005b       __F528E268_cctype          000000014003d05b     Endscreen.obj
 0007:0000005c       __791C33B7_locale@h        000000014003d05c     Endscreen.obj
 0007:0000005d       __6BA085EC_clocale         000000014003d05d     Endscreen.obj
 0007:0000005e       __B816F020_xlocinfo        000000014003d05e     Endscreen.obj
 0007:0000005f       __0E794DD8_xlocale         000000014003d05f     Endscreen.obj
 0007:00000060       __81F38733_xiosbase        000000014003d060     Endscreen.obj
 0007:00000061       __F7BDEE2D_streambuf       000000014003d061     Endscreen.obj
 0007:00000062       __90FE2BCF_xlocnum         000000014003d062     Endscreen.obj
 0007:00000063       __F57DF8F3_ios             000000014003d063     Endscreen.obj
 0007:00000064       __1D69971C_ostream         000000014003d064     Endscreen.obj
 0007:00000065       __7EB9A226_istream         000000014003d065     Endscreen.obj
 0007:00000066       __B5399AEE_iostream        000000014003d066     Endscreen.obj
 0007:00000067       __273C093E_string          000000014003d067     Endscreen.obj
 0007:00000068       __0ED14FEE_winpackagefamily@h 000000014003d068     Endscreen.obj
 0007:00000069       __F92EF742_winapifamily@h  000000014003d069     Endscreen.obj
 0007:0000006a       __A2876721_begin_code@h    000000014003d06a     Endscreen.obj
 0007:0000006b       __353C8186_close_code@h    000000014003d06b     Endscreen.obj
 0007:0000006c       __6F25239C_SDL_platform@h  000000014003d06c     Endscreen.obj
 0007:0000006d       __82C05923_winsdkver@h     000000014003d06d     Endscreen.obj
 0007:0000006e       __22E515EB_sdkddkver@h     000000014003d06e     Endscreen.obj
 0007:0000006f       __F389C1BD_SDL_config@h    000000014003d06f     Endscreen.obj
 0007:00000070       __8F4726C3_stdarg@h        000000014003d070     Endscreen.obj
 0007:00000071       __53FE1C70_SDL_stdinc@h    000000014003d071     Endscreen.obj
 0007:00000072       __3C73E182_SDL_main@h      000000014003d072     Endscreen.obj
 0007:00000073       __70429658_SDL_assert@h    000000014003d073     Endscreen.obj
 0007:00000074       __6FF0449C_SDL_atomic@h    000000014003d074     Endscreen.obj
 0007:00000075       __9A47B874_SDL_error@h     000000014003d075     Endscreen.obj
 0007:00000076       __2BFB700F_setjmp@h        000000014003d076     Endscreen.obj
 0007:00000077       __52EAA9E1_mmintrin@h      000000014003d077     Endscreen.obj
 0007:00000078       __55173A45_xmmintrin@h     000000014003d078     Endscreen.obj
 0007:00000079       __3075B389_emmintrin@h     000000014003d079     Endscreen.obj
 0007:0000007a       __EFD4DB00_pmmintrin@h     000000014003d07a     Endscreen.obj
 0007:0000007b       __5F0DA882_tmmintrin@h     000000014003d07b     Endscreen.obj
 0007:0000007c       __7636BD01_smmintrin@h     000000014003d07c     Endscreen.obj
 0007:0000007d       __135434CD_nmmintrin@h     000000014003d07d     Endscreen.obj
 0007:0000007e       __C6EFCE83_wmmintrin@h     000000014003d07e     Endscreen.obj
 0007:0000007f       __0D7B8384_zmmintrin@h     000000014003d07f     Endscreen.obj
 0007:00000080       __3A6F214E_immintrin@h     000000014003d080     Endscreen.obj
 0007:00000081       __80ACC00B_ammintrin@h     000000014003d081     Endscreen.obj
 0007:00000082       __0DCDCC78_intrin@h        000000014003d082     Endscreen.obj
 0007:00000083       __7A3F6459_SDL_endian@h    000000014003d083     Endscreen.obj
 0007:00000084       __59C756B9_SDL_mutex@h     000000014003d084     Endscreen.obj
 0007:00000085       __D5227AE2_vcruntime_startup@h 000000014003d085     Endscreen.obj
 0007:00000086       __005E73E1_corecrt_startup@h 000000014003d086     Endscreen.obj
 0007:00000087       __8B12B2C4_process@h       000000014003d087     Endscreen.obj
 0007:00000088       __B416E987_SDL_thread@h    000000014003d088     Endscreen.obj
 0007:00000089       __F93BF54A_SDL_rwops@h     000000014003d089     Endscreen.obj
 0007:0000008a       __AD38A102_SDL_audio@h     000000014003d08a     Endscreen.obj
 0007:0000008b       __B2627313_SDL_clipboard@h 000000014003d08b     Endscreen.obj
 0007:0000008c       __1AB942FD_SDL_cpuinfo@h   000000014003d08c     Endscreen.obj
 0007:0000008d       __DCB3A287_SDL_pixels@h    000000014003d08d     Endscreen.obj
 0007:0000008e       __457F31CE_SDL_rect@h      000000014003d08e     Endscreen.obj
 0007:0000008f       __197134FA_SDL_blendmode@h 000000014003d08f     Endscreen.obj
 0007:00000090       __72716086_SDL_surface@h   000000014003d090     Endscreen.obj
 0007:00000091       __31837E1A_SDL_video@h     000000014003d091     Endscreen.obj
 0007:00000092       __B3A95C86_SDL_scancode@h  000000014003d092     Endscreen.obj
 0007:00000093       __69FFF255_SDL_keycode@h   000000014003d093     Endscreen.obj
 0007:00000094       __2076B894_SDL_keyboard@h  000000014003d094     Endscreen.obj
 0007:00000095       __A7666694_SDL_mouse@h     000000014003d095     Endscreen.obj
 0007:00000096       __051F7670_SDL_guid@h      000000014003d096     Endscreen.obj
 0007:00000097       __21AB0010_SDL_joystick@h  000000014003d097     Endscreen.obj
 0007:00000098       __BCC4896D_SDL_sensor@h    000000014003d098     Endscreen.obj
 0007:00000099       __CE7D3E17_SDL_gamecontroller@h 000000014003d099     Endscreen.obj
 0007:0000009a       __CCB63486_SDL_quit@h      000000014003d09a     Endscreen.obj
 0007:0000009b       __0DE17B45_SDL_touch@h     000000014003d09b     Endscreen.obj
 0007:0000009c       __6A4AEB4C_SDL_gesture@h   000000014003d09c     Endscreen.obj
 0007:0000009d       __244B2ECB_SDL_events@h    000000014003d09d     Endscreen.obj
 0007:0000009e       __37EDAFE1_SDL_filesystem@h 000000014003d09e     Endscreen.obj
 0007:0000009f       __DA29A963_SDL_haptic@h    000000014003d09f     Endscreen.obj
 0007:000000a0       __F90722B8_SDL_hidapi@h    000000014003d0a0     Endscreen.obj
 0007:000000a1       __B14BEBC6_SDL_hints@h     000000014003d0a1     Endscreen.obj
 0007:000000a2       __9088D4E7_SDL_loadso@h    000000014003d0a2     Endscreen.obj
 0007:000000a3       __C8E28B65_SDL_log@h       000000014003d0a3     Endscreen.obj
 0007:000000a4       __031AAB28_SDL_messagebox@h 000000014003d0a4     Endscreen.obj
 0007:000000a5       __CE5CC8D9_SDL_metal@h     000000014003d0a5     Endscreen.obj
 0007:000000a6       __B7B4754C_SDL_power@h     000000014003d0a6     Endscreen.obj
 0007:000000a7       __CD132205_SDL_render@h    000000014003d0a7     Endscreen.obj
 0007:000000a8       __0A572F13_SDL_shape@h     000000014003d0a8     Endscreen.obj
 0007:000000a9       __6915B6AB_SDL_system@h    000000014003d0a9     Endscreen.obj
 0007:000000aa       __BFF23D61_SDL_timer@h     000000014003d0aa     Endscreen.obj
 0007:000000ab       __61B59C52_SDL_version@h   000000014003d0ab     Endscreen.obj
 0007:000000ac       __104D3883_SDL_locale@h    000000014003d0ac     Endscreen.obj
 0007:000000ad       __3B7F8EEB_SDL_misc@h      000000014003d0ad     Endscreen.obj
 0007:000000ae       __845747DB_SDL@h           000000014003d0ae     Endscreen.obj
 0007:000000af       __A42BA162_SDL_ttf@h       000000014003d0af     Endscreen.obj
 0007:000000b0       __1117DBDF_UI@h            000000014003d0b0     Endscreen.obj
 0007:000000b1       __DDB49F7C_Endscreen@h     000000014003d0b1     Endscreen.obj
 0007:000000b2       __905582B0_Endscreen@cpp   000000014003d0b2     Endscreen.obj
 0007:000000d6       __2972590E_concurrencysal@h 000000014003d0d6     Game.obj
 0007:000000d7       __196CC136_sal@h           000000014003d0d7     Game.obj
 0007:000000d8       __C395F66A_vadefs@h        000000014003d0d8     Game.obj
 0007:000000d9       __D5C25611_vcruntime@h     000000014003d0d9     Game.obj
 0007:000000da       __311F130C_xkeycheck@h     000000014003d0da     Game.obj
 0007:000000db       __AEBEEEE9_yvals_core@h    000000014003d0db     Game.obj
 0007:000000dc       __05EEB633_limits@h        000000014003d0dc     Game.obj
 0007:000000dd       __7CE37BCF_climits         000000014003d0dd     Game.obj
 0007:000000de       __1B0272D9_corecrt@h       000000014003d0de     Game.obj
 0007:000000df       __D5F74309_vcruntime_new@h 000000014003d0df     Game.obj
 0007:000000e0       __ED298667_vcruntime_new_debug@h 000000014003d0e0     Game.obj
 0007:000000e1       __935DC21B_crtdbg@h        000000014003d0e1     Game.obj
 0007:000000e2       __B40C025A_crtdefs@h       000000014003d0e2     Game.obj
 0007:000000e3       __97CA0262_use_ansi@h      000000014003d0e3     Game.obj
 0007:000000e4       __4E4CEF82_yvals@h         000000014003d0e4     Game.obj
 0007:000000e5       __BB16330F_corecrt_math@h  000000014003d0e5     Game.obj
 0007:000000e6       __3BF2A406_math@h          000000014003d0e6     Game.obj
 0007:000000e7       __45DED006_corecrt_malloc@h 000000014003d0e7     Game.obj
 0007:000000e8       __13F5961F_stddef@h        000000014003d0e8     Game.obj
 0007:000000e9       __FD6DBD68_corecrt_search@h 000000014003d0e9     Game.obj
 0007:000000ea       __E2E33A61_corecrt_wstdlib@h 000000014003d0ea     Game.obj
 0007:000000eb       __6E5ACABA_stdlib@h        000000014003d0eb     Game.obj
 0007:000000ec       __F80C593D_cstdlib         000000014003d0ec     Game.obj
 0007:000000ed       __6CC4302B_xtr1common      000000014003d0ed     Game.obj
 0007:000000ee       __7178C802_intrin0@inl@h   000000014003d0ee     Game.obj
 0007:000000ef       __AD21BB51_intrin0@h       000000014003d0ef     Game.obj
 0007:000000f0       __7BD6CF81_cmath           000000014003d0f0     Game.obj
 0007:000000f1       __44420885_corecrt_stdio_config@h 000000014003d0f1     Game.obj
 0007:000000f2       __AB601D8D_corecrt_wstdio@h 000000014003d0f2     Game.obj
 0007:000000f3       __C1EC35D3_stdio@h         000000014003d0f3     Game.obj
 0007:000000f4       __FAE305CF_cstdio          000000014003d0f4     Game.obj
 0007:000000f5       __61CC25A1_errno@h         000000014003d0f5     Game.obj
 0007:000000f6       __4BC88476_vcruntime_string@h 000000014003d0f6     Game.obj
 0007:000000f7       __E4C945B4_corecrt_memcpy_s@h 000000014003d0f7     Game.obj
 0007:000000f8       __8EAFF484_corecrt_memory@h 000000014003d0f8     Game.obj
 0007:000000f9       __6490AEC5_corecrt_wstring@h 000000014003d0f9     Game.obj
 0007:000000fa       __E8295E1E_string@h        000000014003d0fa     Game.obj
 0007:000000fb       __B49EF1DD_cstring         000000014003d0fb     Game.obj
 0007:000000fc       __EF1F6BBA_corecrt_wconio@h 000000014003d0fc     Game.obj
 0007:000000fd       __74484FB3_corecrt_wctype@h 000000014003d0fd     Game.obj
 0007:000000fe       __3D1D430C_corecrt_wdirect@h 000000014003d0fe     Game.obj
 0007:000000ff       __8ECB7138_corecrt_share@h 000000014003d0ff     Game.obj
 0007:00000100       __DB7FEBA6_corecrt_wio@h   000000014003d100     Game.obj
 0007:00000101       __9A9F0068_corecrt_wprocess@h 000000014003d101     Game.obj
 0007:00000102       __369A9BC3_corecrt_wtime@h 000000014003d102     Game.obj
 0007:00000103       __CE789B9D_types@h         000000014003d103     Game.obj
 0007:00000104       __9901C817_stat@h          000000014003d104     Game.obj
 0007:00000105       __3FCAD62E_wchar@h         000000014003d105     Game.obj
 0007:00000106       __6068D39C_cwchar          000000014003d106     Game.obj
 0007:00000107       __23A856AA_iosfwd          000000014003d107     Game.obj
 0007:00000108       __5DC78390_cstddef         000000014003d108     Game.obj
 0007:00000109       __33B42F3D_initializer_list 000000014003d109     Game.obj
 0007:0000010a       __BB98980C_stdint@h        000000014003d10a     Game.obj
 0007:0000010b       __4552B840_cstdint         000000014003d10b     Game.obj
 0007:0000010c       __7FB6D5C7_type_traits     000000014003d10c     Game.obj
 0007:0000010d       __CF01DCB6_utility         000000014003d10d     Game.obj
 0007:0000010e       __12DC71E1___msvc_iter_core@hpp 000000014003d10e     Game.obj
 0007:0000010f       __D740E0F1_xutility        000000014003d10f     Game.obj
 0007:00000110       __C6EC57B1_iterator        000000014003d110     Game.obj
 0007:00000111       __F7972D0B_share@h         000000014003d111     Game.obj
 0007:00000112       __3D410F40___msvc_system_error_abi@hpp 000000014003d112     Game.obj
 0007:00000113       __67C27134_cerrno          000000014003d113     Game.obj
 0007:00000114       __FA77ED4C_malloc@h        000000014003d114     Game.obj
 0007:00000115       __89766DA4_corecrt_terminate@h 000000014003d115     Game.obj
 0007:00000116       __27A4BD10_eh@h            000000014003d116     Game.obj
 0007:00000117       __E5C78335_vcruntime_exception@h 000000014003d117     Game.obj
 0007:00000118       __7C536CCC_exception       000000014003d118     Game.obj
 0007:00000119       __B9985323_float@h         000000014003d119     Game.obj
 0007:0000011a       __89A7CE48_cfloat          000000014003d11a     Game.obj
 0007:0000011b       __98438E05_isa_availability@h 000000014003d11b     Game.obj
 0007:0000011c       __EF41832C_limits          000000014003d11c     Game.obj
 0007:0000011d       __0DB0C2E5_new             000000014003d11d     Game.obj
 0007:0000011e       __765FE01A_xatomic@h       000000014003d11e     Game.obj
 0007:0000011f       __A594BF75_xmemory         000000014003d11f     Game.obj
 0007:00000120       __DFFCB714___msvc_sanitizer_annotate_container@hpp 000000014003d120     Game.obj
 0007:00000121       __D14739E9_xstring         000000014003d121     Game.obj
 0007:00000122       __F51D5691_stdexcept       000000014003d122     Game.obj
 0007:00000123       __ED2630B9_xcall_once@h    000000014003d123     Game.obj
 0007:00000124       __E6D9FA8D_xerrc@h         000000014003d124     Game.obj
 0007:00000125       __0A9237D2_time@h          000000014003d125     Game.obj
 0007:00000126       __BD655389_ctime           000000014003d126     Game.obj
 0007:00000127       __618403B0_xtimec@h        000000014003d127     Game.obj
 0007:00000128       __F68435D1_xthreads@h      000000014003d128     Game.obj
 0007:00000129       __8474DFEE_atomic          000000014003d129     Game.obj
 0007:0000012a       __527B2299_system_error    000000014003d12a     Game.obj
 0007:0000012b       __0632977E_vcruntime_typeinfo@h 000000014003d12b     Game.obj
 0007:0000012c       __A79F13E8_typeinfo        000000014003d12c     Game.obj
 0007:0000012d       __53EF8FA2_memory          000000014003d12d     Game.obj
 0007:0000012e       __7FAAD8AD_xfacet          000000014003d12e     Game.obj
 0007:0000012f       __53FF2065___msvc_xlocinfo_types@hpp 000000014003d12f     Game.obj
 0007:00000130       __1EC467ED_ctype@h         000000014003d130     Game.obj
 0007:00000131       __F528E268_cctype          000000014003d131     Game.obj
 0007:00000132       __791C33B7_locale@h        000000014003d132     Game.obj
 0007:00000133       __6BA085EC_clocale         000000014003d133     Game.obj
 0007:00000134       __B816F020_xlocinfo        000000014003d134     Game.obj
 0007:00000135       __0E794DD8_xlocale         000000014003d135     Game.obj
 0007:00000136       __81F38733_xiosbase        000000014003d136     Game.obj
 0007:00000137       __F7BDEE2D_streambuf       000000014003d137     Game.obj
 0007:00000138       __90FE2BCF_xlocnum         000000014003d138     Game.obj
 0007:00000139       __F57DF8F3_ios             000000014003d139     Game.obj
 0007:0000013a       __1D69971C_ostream         000000014003d13a     Game.obj
 0007:0000013b       __7EB9A226_istream         000000014003d13b     Game.obj
 0007:0000013c       __B5399AEE_iostream        000000014003d13c     Game.obj
 0007:0000013d       __273C093E_string          000000014003d13d     Game.obj
 0007:0000013e       __A2ECF3CC_vector          000000014003d13e     Game.obj
 0007:0000013f       __C7E92177___msvc_filebuf@hpp 000000014003d13f     Game.obj
 0007:00000140       __88F1D2CF_fstream         000000014003d140     Game.obj
 0007:00000141       __0ED14FEE_winpackagefamily@h 000000014003d141     Game.obj
 0007:00000142       __F92EF742_winapifamily@h  000000014003d142     Game.obj
 0007:00000143       __A2876721_begin_code@h    000000014003d143     Game.obj
 0007:00000144       __353C8186_close_code@h    000000014003d144     Game.obj
 0007:00000145       __6F25239C_SDL_platform@h  000000014003d145     Game.obj
 0007:00000146       __82C05923_winsdkver@h     000000014003d146     Game.obj
 0007:00000147       __22E515EB_sdkddkver@h     000000014003d147     Game.obj
 0007:00000148       __F389C1BD_SDL_config@h    000000014003d148     Game.obj
 0007:00000149       __8F4726C3_stdarg@h        000000014003d149     Game.obj
 0007:0000014a       __53FE1C70_SDL_stdinc@h    000000014003d14a     Game.obj
 0007:0000014b       __3C73E182_SDL_main@h      000000014003d14b     Game.obj
 0007:0000014c       __70429658_SDL_assert@h    000000014003d14c     Game.obj
 0007:0000014d       __6FF0449C_SDL_atomic@h    000000014003d14d     Game.obj
 0007:0000014e       __9A47B874_SDL_error@h     000000014003d14e     Game.obj
 0007:0000014f       __2BFB700F_setjmp@h        000000014003d14f     Game.obj
 0007:00000150       __52EAA9E1_mmintrin@h      000000014003d150     Game.obj
 0007:00000151       __55173A45_xmmintrin@h     000000014003d151     Game.obj
 0007:00000152       __3075B389_emmintrin@h     000000014003d152     Game.obj
 0007:00000153       __EFD4DB00_pmmintrin@h     000000014003d153     Game.obj
 0007:00000154       __5F0DA882_tmmintrin@h     000000014003d154     Game.obj
 0007:00000155       __7636BD01_smmintrin@h     000000014003d155     Game.obj
 0007:00000156       __135434CD_nmmintrin@h     000000014003d156     Game.obj
 0007:00000157       __C6EFCE83_wmmintrin@h     000000014003d157     Game.obj
 0007:00000158       __0D7B8384_zmmintrin@h     000000014003d158     Game.obj
 0007:00000159       __3A6F214E_immintrin@h     000000014003d159     Game.obj
 0007:0000015a       __80ACC00B_ammintrin@h     000000014003d15a     Game.obj
 0007:0000015b       __0DCDCC78_intrin@h        000000014003d15b     Game.obj
 0007:0000015c       __7A3F6459_SDL_endian@h    000000014003d15c     Game.obj
 0007:0000015d       __59C756B9_SDL_mutex@h     000000014003d15d     Game.obj
 0007:0000015e       __D5227AE2_vcruntime_startup@h 000000014003d15e     Game.obj
 0007:0000015f       __005E73E1_corecrt_startup@h 000000014003d15f     Game.obj
 0007:00000160       __8B12B2C4_process@h       000000014003d160     Game.obj
 0007:00000161       __B416E987_SDL_thread@h    000000014003d161     Game.obj
 0007:00000162       __F93BF54A_SDL_rwops@h     000000014003d162     Game.obj
 0007:00000163       __AD38A102_SDL_audio@h     000000014003d163     Game.obj
 0007:00000164       __B2627313_SDL_clipboard@h 000000014003d164     Game.obj
 0007:00000165       __1AB942FD_SDL_cpuinfo@h   000000014003d165     Game.obj
 0007:00000166       __DCB3A287_SDL_pixels@h    000000014003d166     Game.obj
 0007:00000167       __457F31CE_SDL_rect@h      000000014003d167     Game.obj
 0007:00000168       __197134FA_SDL_blendmode@h 000000014003d168     Game.obj
 0007:00000169       __72716086_SDL_surface@h   000000014003d169     Game.obj
 0007:0000016a       __31837E1A_SDL_video@h     000000014003d16a     Game.obj
 0007:0000016b       __B3A95C86_SDL_scancode@h  000000014003d16b     Game.obj
 0007:0000016c       __69FFF255_SDL_keycode@h   000000014003d16c     Game.obj
 0007:0000016d       __2076B894_SDL_keyboard@h  000000014003d16d     Game.obj
 0007:0000016e       __A7666694_SDL_mouse@h     000000014003d16e     Game.obj
 0007:0000016f       __051F7670_SDL_guid@h      000000014003d16f     Game.obj
 0007:00000170       __21AB0010_SDL_joystick@h  000000014003d170     Game.obj
 0007:00000171       __BCC4896D_SDL_sensor@h    000000014003d171     Game.obj
 0007:00000172       __CE7D3E17_SDL_gamecontroller@h 000000014003d172     Game.obj
 0007:00000173       __CCB63486_SDL_quit@h      000000014003d173     Game.obj
 0007:00000174       __0DE17B45_SDL_touch@h     000000014003d174     Game.obj
 0007:00000175       __6A4AEB4C_SDL_gesture@h   000000014003d175     Game.obj
 0007:00000176       __244B2ECB_SDL_events@h    000000014003d176     Game.obj
 0007:00000177       __37EDAFE1_SDL_filesystem@h 000000014003d177     Game.obj
 0007:00000178       __DA29A963_SDL_haptic@h    000000014003d178     Game.obj
 0007:00000179       __F90722B8_SDL_hidapi@h    000000014003d179     Game.obj
 0007:0000017a       __B14BEBC6_SDL_hints@h     000000014003d17a     Game.obj
 0007:0000017b       __9088D4E7_SDL_loadso@h    000000014003d17b     Game.obj
 0007:0000017c       __C8E28B65_SDL_log@h       000000014003d17c     Game.obj
 0007:0000017d       __031AAB28_SDL_messagebox@h 000000014003d17d     Game.obj
 0007:0000017e       __CE5CC8D9_SDL_metal@h     000000014003d17e     Game.obj
 0007:0000017f       __B7B4754C_SDL_power@h     000000014003d17f     Game.obj
 0007:00000180       __CD132205_SDL_render@h    000000014003d180     Game.obj
 0007:00000181       __0A572F13_SDL_shape@h     000000014003d181     Game.obj
 0007:00000182       __6915B6AB_SDL_system@h    000000014003d182     Game.obj
 0007:00000183       __BFF23D61_SDL_timer@h     000000014003d183     Game.obj
 0007:00000184       __61B59C52_SDL_version@h   000000014003d184     Game.obj
 0007:00000185       __104D3883_SDL_locale@h    000000014003d185     Game.obj
 0007:00000186       __3B7F8EEB_SDL_misc@h      000000014003d186     Game.obj
 0007:00000187       __845747DB_SDL@h           000000014003d187     Game.obj
 0007:00000188       __A42BA162_SDL_ttf@h       000000014003d188     Game.obj
 0007:00000189       __6CC1B08D_SDL_image@h     000000014003d189     Game.obj
 0007:0000018a       __1117DBDF_UI@h            000000014003d18a     Game.obj
 0007:0000018b       __23079775_Splashscreen@h  000000014003d18b     Game.obj
 0007:0000018c       __4DE9CACC_V2D@h           000000014003d18c     Game.obj
 0007:0000018d       __D9C75B77_Obj@h           000000014003d18d     Game.obj
 0007:0000018e       __CFE0EAE2_Tilemap@h       000000014003d18e     Game.obj
 0007:0000018f       __EC22DB91_Gameworld@h     000000014003d18f     Game.obj
 0007:00000190       __B2294197_Timelimit@h     000000014003d190     Game.obj
 0007:00000191       __DDB49F7C_Endscreen@h     000000014003d191     Game.obj
 0007:00000192       __61198008_Game@h          000000014003d192     Game.obj
 0007:00000193       __560E8F1A_Game@cpp        000000014003d193     Game.obj
 0007:000001ba       __2972590E_concurrencysal@h 000000014003d1ba     Gameworld.obj
 0007:000001bb       __196CC136_sal@h           000000014003d1bb     Gameworld.obj
 0007:000001bc       __C395F66A_vadefs@h        000000014003d1bc     Gameworld.obj
 0007:000001bd       __D5C25611_vcruntime@h     000000014003d1bd     Gameworld.obj
 0007:000001be       __311F130C_xkeycheck@h     000000014003d1be     Gameworld.obj
 0007:000001bf       __AEBEEEE9_yvals_core@h    000000014003d1bf     Gameworld.obj
 0007:000001c0       __05EEB633_limits@h        000000014003d1c0     Gameworld.obj
 0007:000001c1       __7CE37BCF_climits         000000014003d1c1     Gameworld.obj
 0007:000001c2       __1B0272D9_corecrt@h       000000014003d1c2     Gameworld.obj
 0007:000001c3       __D5F74309_vcruntime_new@h 000000014003d1c3     Gameworld.obj
 0007:000001c4       __ED298667_vcruntime_new_debug@h 000000014003d1c4     Gameworld.obj
 0007:000001c5       __935DC21B_crtdbg@h        000000014003d1c5     Gameworld.obj
 0007:000001c6       __B40C025A_crtdefs@h       000000014003d1c6     Gameworld.obj
 0007:000001c7       __97CA0262_use_ansi@h      000000014003d1c7     Gameworld.obj
 0007:000001c8       __4E4CEF82_yvals@h         000000014003d1c8     Gameworld.obj
 0007:000001c9       __BB16330F_corecrt_math@h  000000014003d1c9     Gameworld.obj
 0007:000001ca       __3BF2A406_math@h          000000014003d1ca     Gameworld.obj
 0007:000001cb       __45DED006_corecrt_malloc@h 000000014003d1cb     Gameworld.obj
 0007:000001cc       __13F5961F_stddef@h        000000014003d1cc     Gameworld.obj
 0007:000001cd       __FD6DBD68_corecrt_search@h 000000014003d1cd     Gameworld.obj
 0007:000001ce       __E2E33A61_corecrt_wstdlib@h 000000014003d1ce     Gameworld.obj
 0007:000001cf       __6E5ACABA_stdlib@h        000000014003d1cf     Gameworld.obj
 0007:000001d0       __F80C593D_cstdlib         000000014003d1d0     Gameworld.obj
 0007:000001d1       __6CC4302B_xtr1common      000000014003d1d1     Gameworld.obj
 0007:000001d2       __7178C802_intrin0@inl@h   000000014003d1d2     Gameworld.obj
 0007:000001d3       __AD21BB51_intrin0@h       000000014003d1d3     Gameworld.obj
 0007:000001d4       __7BD6CF81_cmath           000000014003d1d4     Gameworld.obj
 0007:000001d5       __44420885_corecrt_stdio_config@h 000000014003d1d5     Gameworld.obj
 0007:000001d6       __AB601D8D_corecrt_wstdio@h 000000014003d1d6     Gameworld.obj
 0007:000001d7       __C1EC35D3_stdio@h         000000014003d1d7     Gameworld.obj
 0007:000001d8       __FAE305CF_cstdio          000000014003d1d8     Gameworld.obj
 0007:000001d9       __61CC25A1_errno@h         000000014003d1d9     Gameworld.obj
 0007:000001da       __4BC88476_vcruntime_string@h 000000014003d1da     Gameworld.obj
 0007:000001db       __E4C945B4_corecrt_memcpy_s@h 000000014003d1db     Gameworld.obj
 0007:000001dc       __8EAFF484_corecrt_memory@h 000000014003d1dc     Gameworld.obj
 0007:000001dd       __6490AEC5_corecrt_wstring@h 000000014003d1dd     Gameworld.obj
 0007:000001de       __E8295E1E_string@h        000000014003d1de     Gameworld.obj
 0007:000001df       __B49EF1DD_cstring         000000014003d1df     Gameworld.obj
 0007:000001e0       __EF1F6BBA_corecrt_wconio@h 000000014003d1e0     Gameworld.obj
 0007:000001e1       __74484FB3_corecrt_wctype@h 000000014003d1e1     Gameworld.obj
 0007:000001e2       __3D1D430C_corecrt_wdirect@h 000000014003d1e2     Gameworld.obj
 0007:000001e3       __8ECB7138_corecrt_share@h 000000014003d1e3     Gameworld.obj
 0007:000001e4       __DB7FEBA6_corecrt_wio@h   000000014003d1e4     Gameworld.obj
 0007:000001e5       __9A9F0068_corecrt_wprocess@h 000000014003d1e5     Gameworld.obj
 0007:000001e6       __369A9BC3_corecrt_wtime@h 000000014003d1e6     Gameworld.obj
 0007:000001e7       __CE789B9D_types@h         000000014003d1e7     Gameworld.obj
 0007:000001e8       __9901C817_stat@h          000000014003d1e8     Gameworld.obj
 0007:000001e9       __3FCAD62E_wchar@h         000000014003d1e9     Gameworld.obj
 0007:000001ea       __6068D39C_cwchar          000000014003d1ea     Gameworld.obj
 0007:000001eb       __23A856AA_iosfwd          000000014003d1eb     Gameworld.obj
 0007:000001ec       __5DC78390_cstddef         000000014003d1ec     Gameworld.obj
 0007:000001ed       __33B42F3D_initializer_list 000000014003d1ed     Gameworld.obj
 0007:000001ee       __BB98980C_stdint@h        000000014003d1ee     Gameworld.obj
 0007:000001ef       __4552B840_cstdint         000000014003d1ef     Gameworld.obj
 0007:000001f0       __7FB6D5C7_type_traits     000000014003d1f0     Gameworld.obj
 0007:000001f1       __CF01DCB6_utility         000000014003d1f1     Gameworld.obj
 0007:000001f2       __12DC71E1___msvc_iter_core@hpp 000000014003d1f2     Gameworld.obj
 0007:000001f3       __D740E0F1_xutility        000000014003d1f3     Gameworld.obj
 0007:000001f4       __C6EC57B1_iterator        000000014003d1f4     Gameworld.obj
 0007:000001f5       __F7972D0B_share@h         000000014003d1f5     Gameworld.obj
 0007:000001f6       __3D410F40___msvc_system_error_abi@hpp 000000014003d1f6     Gameworld.obj
 0007:000001f7       __67C27134_cerrno          000000014003d1f7     Gameworld.obj
 0007:000001f8       __FA77ED4C_malloc@h        000000014003d1f8     Gameworld.obj
 0007:000001f9       __89766DA4_corecrt_terminate@h 000000014003d1f9     Gameworld.obj
 0007:000001fa       __27A4BD10_eh@h            000000014003d1fa     Gameworld.obj
 0007:000001fb       __E5C78335_vcruntime_exception@h 000000014003d1fb     Gameworld.obj
 0007:000001fc       __7C536CCC_exception       000000014003d1fc     Gameworld.obj
 0007:000001fd       __B9985323_float@h         000000014003d1fd     Gameworld.obj
 0007:000001fe       __89A7CE48_cfloat          000000014003d1fe     Gameworld.obj
 0007:000001ff       __98438E05_isa_availability@h 000000014003d1ff     Gameworld.obj
 0007:00000200       __EF41832C_limits          000000014003d200     Gameworld.obj
 0007:00000201       __0DB0C2E5_new             000000014003d201     Gameworld.obj
 0007:00000202       __765FE01A_xatomic@h       000000014003d202     Gameworld.obj
 0007:00000203       __A594BF75_xmemory         000000014003d203     Gameworld.obj
 0007:00000204       __DFFCB714___msvc_sanitizer_annotate_container@hpp 000000014003d204     Gameworld.obj
 0007:00000205       __D14739E9_xstring         000000014003d205     Gameworld.obj
 0007:00000206       __F51D5691_stdexcept       000000014003d206     Gameworld.obj
 0007:00000207       __ED2630B9_xcall_once@h    000000014003d207     Gameworld.obj
 0007:00000208       __E6D9FA8D_xerrc@h         000000014003d208     Gameworld.obj
 0007:00000209       __0A9237D2_time@h          000000014003d209     Gameworld.obj
 0007:0000020a       __BD655389_ctime           000000014003d20a     Gameworld.obj
 0007:0000020b       __618403B0_xtimec@h        000000014003d20b     Gameworld.obj
 0007:0000020c       __F68435D1_xthreads@h      000000014003d20c     Gameworld.obj
 0007:0000020d       __8474DFEE_atomic          000000014003d20d     Gameworld.obj
 0007:0000020e       __527B2299_system_error    000000014003d20e     Gameworld.obj
 0007:0000020f       __0632977E_vcruntime_typeinfo@h 000000014003d20f     Gameworld.obj
 0007:00000210       __A79F13E8_typeinfo        000000014003d210     Gameworld.obj
 0007:00000211       __53EF8FA2_memory          000000014003d211     Gameworld.obj
 0007:00000212       __7FAAD8AD_xfacet          000000014003d212     Gameworld.obj
 0007:00000213       __53FF2065___msvc_xlocinfo_types@hpp 000000014003d213     Gameworld.obj
 0007:00000214       __1EC467ED_ctype@h         000000014003d214     Gameworld.obj
 0007:00000215       __F528E268_cctype          000000014003d215     Gameworld.obj
 0007:00000216       __791C33B7_locale@h        000000014003d216     Gameworld.obj
 0007:00000217       __6BA085EC_clocale         000000014003d217     Gameworld.obj
 0007:00000218       __B816F020_xlocinfo        000000014003d218     Gameworld.obj
 0007:00000219       __0E794DD8_xlocale         000000014003d219     Gameworld.obj
 0007:0000021a       __81F38733_xiosbase        000000014003d21a     Gameworld.obj
 0007:0000021b       __F7BDEE2D_streambuf       000000014003d21b     Gameworld.obj
 0007:0000021c       __90FE2BCF_xlocnum         000000014003d21c     Gameworld.obj
 0007:0000021d       __F57DF8F3_ios             000000014003d21d     Gameworld.obj
 0007:0000021e       __1D69971C_ostream         000000014003d21e     Gameworld.obj
 0007:0000021f       __7EB9A226_istream         000000014003d21f     Gameworld.obj
 0007:00000220       __B5399AEE_iostream        000000014003d220     Gameworld.obj
 0007:00000221       __0ED14FEE_winpackagefamily@h 000000014003d221     Gameworld.obj
 0007:00000222       __F92EF742_winapifamily@h  000000014003d222     Gameworld.obj
 0007:00000223       __A2876721_begin_code@h    000000014003d223     Gameworld.obj
 0007:00000224       __353C8186_close_code@h    000000014003d224     Gameworld.obj
 0007:00000225       __6F25239C_SDL_platform@h  000000014003d225     Gameworld.obj
 0007:00000226       __82C05923_winsdkver@h     000000014003d226     Gameworld.obj
 0007:00000227       __22E515EB_sdkddkver@h     000000014003d227     Gameworld.obj
 0007:00000228       __F389C1BD_SDL_config@h    000000014003d228     Gameworld.obj
 0007:00000229       __8F4726C3_stdarg@h        000000014003d229     Gameworld.obj
 0007:0000022a       __53FE1C70_SDL_stdinc@h    000000014003d22a     Gameworld.obj
 0007:0000022b       __3C73E182_SDL_main@h      000000014003d22b     Gameworld.obj
 0007:0000022c       __70429658_SDL_assert@h    000000014003d22c     Gameworld.obj
 0007:0000022d       __6FF0449C_SDL_atomic@h    000000014003d22d     Gameworld.obj
 0007:0000022e       __9A47B874_SDL_error@h     000000014003d22e     Gameworld.obj
 0007:0000022f       __2BFB700F_setjmp@h        000000014003d22f     Gameworld.obj
 0007:00000230       __52EAA9E1_mmintrin@h      000000014003d230     Gameworld.obj
 0007:00000231       __55173A45_xmmintrin@h     000000014003d231     Gameworld.obj
 0007:00000232       __3075B389_emmintrin@h     000000014003d232     Gameworld.obj
 0007:00000233       __EFD4DB00_pmmintrin@h     000000014003d233     Gameworld.obj
 0007:00000234       __5F0DA882_tmmintrin@h     000000014003d234     Gameworld.obj
 0007:00000235       __7636BD01_smmintrin@h     000000014003d235     Gameworld.obj
 0007:00000236       __135434CD_nmmintrin@h     000000014003d236     Gameworld.obj
 0007:00000237       __C6EFCE83_wmmintrin@h     000000014003d237     Gameworld.obj
 0007:00000238       __0D7B8384_zmmintrin@h     000000014003d238     Gameworld.obj
 0007:00000239       __3A6F214E_immintrin@h     000000014003d239     Gameworld.obj
 0007:0000023a       __80ACC00B_ammintrin@h     000000014003d23a     Gameworld.obj
 0007:0000023b       __0DCDCC78_intrin@h        000000014003d23b     Gameworld.obj
 0007:0000023c       __7A3F6459_SDL_endian@h    000000014003d23c     Gameworld.obj
 0007:0000023d       __59C756B9_SDL_mutex@h     000000014003d23d     Gameworld.obj
 0007:0000023e       __D5227AE2_vcruntime_startup@h 000000014003d23e     Gameworld.obj
 0007:0000023f       __005E73E1_corecrt_startup@h 000000014003d23f     Gameworld.obj
 0007:00000240       __8B12B2C4_process@h       000000014003d240     Gameworld.obj
 0007:00000241       __B416E987_SDL_thread@h    000000014003d241     Gameworld.obj
 0007:00000242       __F93BF54A_SDL_rwops@h     000000014003d242     Gameworld.obj
 0007:00000243       __AD38A102_SDL_audio@h     000000014003d243     Gameworld.obj
 0007:00000244       __B2627313_SDL_clipboard@h 000000014003d244     Gameworld.obj
 0007:00000245       __1AB942FD_SDL_cpuinfo@h   000000014003d245     Gameworld.obj
 0007:00000246       __DCB3A287_SDL_pixels@h    000000014003d246     Gameworld.obj
 0007:00000247       __457F31CE_SDL_rect@h      000000014003d247     Gameworld.obj
 0007:00000248       __197134FA_SDL_blendmode@h 000000014003d248     Gameworld.obj
 0007:00000249       __72716086_SDL_surface@h   000000014003d249     Gameworld.obj
 0007:0000024a       __31837E1A_SDL_video@h     000000014003d24a     Gameworld.obj
 0007:0000024b       __B3A95C86_SDL_scancode@h  000000014003d24b     Gameworld.obj
 0007:0000024c       __69FFF255_SDL_keycode@h   000000014003d24c     Gameworld.obj
 0007:0000024d       __2076B894_SDL_keyboard@h  000000014003d24d     Gameworld.obj
 0007:0000024e       __A7666694_SDL_mouse@h     000000014003d24e     Gameworld.obj
 0007:0000024f       __051F7670_SDL_guid@h      000000014003d24f     Gameworld.obj
 0007:00000250       __21AB0010_SDL_joystick@h  000000014003d250     Gameworld.obj
 0007:00000251       __BCC4896D_SDL_sensor@h    000000014003d251     Gameworld.obj
 0007:00000252       __CE7D3E17_SDL_gamecontroller@h 000000014003d252     Gameworld.obj
 0007:00000253       __CCB63486_SDL_quit@h      000000014003d253     Gameworld.obj
 0007:00000254       __0DE17B45_SDL_touch@h     000000014003d254     Gameworld.obj
 0007:00000255       __6A4AEB4C_SDL_gesture@h   000000014003d255     Gameworld.obj
 0007:00000256       __244B2ECB_SDL_events@h    000000014003d256     Gameworld.obj
 0007:00000257       __37EDAFE1_SDL_filesystem@h 000000014003d257     Gameworld.obj
 0007:00000258       __DA29A963_SDL_haptic@h    000000014003d258     Gameworld.obj
 0007:00000259       __F90722B8_SDL_hidapi@h    000000014003d259     Gameworld.obj
 0007:0000025a       __B14BEBC6_SDL_hints@h     000000014003d25a     Gameworld.obj
 0007:0000025b       __9088D4E7_SDL_loadso@h    000000014003d25b     Gameworld.obj
 0007:0000025c       __C8E28B65_SDL_log@h       000000014003d25c     Gameworld.obj
 0007:0000025d       __031AAB28_SDL_messagebox@h 000000014003d25d     Gameworld.obj
 0007:0000025e       __CE5CC8D9_SDL_metal@h     000000014003d25e     Gameworld.obj
 0007:0000025f       __B7B4754C_SDL_power@h     000000014003d25f     Gameworld.obj
 0007:00000260       __CD132205_SDL_render@h    000000014003d260     Gameworld.obj
 0007:00000261       __0A572F13_SDL_shape@h     000000014003d261     Gameworld.obj
 0007:00000262       __6915B6AB_SDL_system@h    000000014003d262     Gameworld.obj
 0007:00000263       __BFF23D61_SDL_timer@h     000000014003d263     Gameworld.obj
 0007:00000264       __61B59C52_SDL_version@h   000000014003d264     Gameworld.obj
 0007:00000265       __104D3883_SDL_locale@h    000000014003d265     Gameworld.obj
 0007:00000266       __3B7F8EEB_SDL_misc@h      000000014003d266     Gameworld.obj
 0007:00000267       __845747DB_SDL@h           000000014003d267     Gameworld.obj
 0007:00000268       __A2ECF3CC_vector          000000014003d268     Gameworld.obj
 0007:00000269       __273C093E_string          000000014003d269     Gameworld.obj
 0007:0000026a       __C7E92177___msvc_filebuf@hpp 000000014003d26a     Gameworld.obj
 0007:0000026b       __88F1D2CF_fstream         000000014003d26b     Gameworld.obj
 0007:0000026c       __6CC1B08D_SDL_image@h     000000014003d26c     Gameworld.obj
 0007:0000026d       __4DE9CACC_V2D@h           000000014003d26d     Gameworld.obj
 0007:0000026e       __D9C75B77_Obj@h           000000014003d26e     Gameworld.obj
 0007:0000026f       __CFE0EAE2_Tilemap@h       000000014003d26f     Gameworld.obj
 0007:00000270       __EC22DB91_Gameworld@h     000000014003d270     Gameworld.obj
 0007:00000271       __0A34BB0E_Gameworld@cpp   000000014003d271     Gameworld.obj
 0007:00000296       __2972590E_concurrencysal@h 000000014003d296     Obj.obj
 0007:00000297       __196CC136_sal@h           000000014003d297     Obj.obj
 0007:00000298       __C395F66A_vadefs@h        000000014003d298     Obj.obj
 0007:00000299       __D5C25611_vcruntime@h     000000014003d299     Obj.obj
 0007:0000029a       __311F130C_xkeycheck@h     000000014003d29a     Obj.obj
 0007:0000029b       __AEBEEEE9_yvals_core@h    000000014003d29b     Obj.obj
 0007:0000029c       __05EEB633_limits@h        000000014003d29c     Obj.obj
 0007:0000029d       __7CE37BCF_climits         000000014003d29d     Obj.obj
 0007:0000029e       __1B0272D9_corecrt@h       000000014003d29e     Obj.obj
 0007:0000029f       __D5F74309_vcruntime_new@h 000000014003d29f     Obj.obj
 0007:000002a0       __ED298667_vcruntime_new_debug@h 000000014003d2a0     Obj.obj
 0007:000002a1       __935DC21B_crtdbg@h        000000014003d2a1     Obj.obj
 0007:000002a2       __B40C025A_crtdefs@h       000000014003d2a2     Obj.obj
 0007:000002a3       __97CA0262_use_ansi@h      000000014003d2a3     Obj.obj
 0007:000002a4       __4E4CEF82_yvals@h         000000014003d2a4     Obj.obj
 0007:000002a5       __BB16330F_corecrt_math@h  000000014003d2a5     Obj.obj
 0007:000002a6       __3BF2A406_math@h          000000014003d2a6     Obj.obj
 0007:000002a7       __45DED006_corecrt_malloc@h 000000014003d2a7     Obj.obj
 0007:000002a8       __13F5961F_stddef@h        000000014003d2a8     Obj.obj
 0007:000002a9       __FD6DBD68_corecrt_search@h 000000014003d2a9     Obj.obj
 0007:000002aa       __E2E33A61_corecrt_wstdlib@h 000000014003d2aa     Obj.obj
 0007:000002ab       __6E5ACABA_stdlib@h        000000014003d2ab     Obj.obj
 0007:000002ac       __F80C593D_cstdlib         000000014003d2ac     Obj.obj
 0007:000002ad       __6CC4302B_xtr1common      000000014003d2ad     Obj.obj
 0007:000002ae       __7178C802_intrin0@inl@h   000000014003d2ae     Obj.obj
 0007:000002af       __AD21BB51_intrin0@h       000000014003d2af     Obj.obj
 0007:000002b0       __7BD6CF81_cmath           000000014003d2b0     Obj.obj
 0007:000002b1       __44420885_corecrt_stdio_config@h 000000014003d2b1     Obj.obj
 0007:000002b2       __AB601D8D_corecrt_wstdio@h 000000014003d2b2     Obj.obj
 0007:000002b3       __C1EC35D3_stdio@h         000000014003d2b3     Obj.obj
 0007:000002b4       __FAE305CF_cstdio          000000014003d2b4     Obj.obj
 0007:000002b5       __61CC25A1_errno@h         000000014003d2b5     Obj.obj
 0007:000002b6       __4BC88476_vcruntime_string@h 000000014003d2b6     Obj.obj
 0007:000002b7       __E4C945B4_corecrt_memcpy_s@h 000000014003d2b7     Obj.obj
 0007:000002b8       __8EAFF484_corecrt_memory@h 000000014003d2b8     Obj.obj
 0007:000002b9       __6490AEC5_corecrt_wstring@h 000000014003d2b9     Obj.obj
 0007:000002ba       __E8295E1E_string@h        000000014003d2ba     Obj.obj
 0007:000002bb       __B49EF1DD_cstring         000000014003d2bb     Obj.obj
 0007:000002bc       __EF1F6BBA_corecrt_wconio@h 000000014003d2bc     Obj.obj
 0007:000002bd       __74484FB3_corecrt_wctype@h 000000014003d2bd     Obj.obj
 0007:000002be       __3D1D430C_corecrt_wdirect@h 000000014003d2be     Obj.obj
 0007:000002bf       __8ECB7138_corecrt_share@h 000000014003d2bf     Obj.obj
 0007:000002c0       __DB7FEBA6_corecrt_wio@h   000000014003d2c0     Obj.obj
 0007:000002c1       __9A9F0068_corecrt_wprocess@h 000000014003d2c1     Obj.obj
 0007:000002c2       __369A9BC3_corecrt_wtime@h 000000014003d2c2     Obj.obj
 0007:000002c3       __CE789B9D_types@h         000000014003d2c3     Obj.obj
 0007:000002c4       __9901C817_stat@h          000000014003d2c4     Obj.obj
 0007:000002c5       __3FCAD62E_wchar@h         000000014003d2c5     Obj.obj
 0007:000002c6       __6068D39C_cwchar          000000014003d2c6     Obj.obj
 0007:000002c7       __23A856AA_iosfwd          000000014003d2c7     Obj.obj
 0007:000002c8       __5DC78390_cstddef         000000014003d2c8     Obj.obj
 0007:000002c9       __33B42F3D_initializer_list 000000014003d2c9     Obj.obj
 0007:000002ca       __BB98980C_stdint@h        000000014003d2ca     Obj.obj
 0007:000002cb       __4552B840_cstdint         000000014003d2cb     Obj.obj
 0007:000002cc       __7FB6D5C7_type_traits     000000014003d2cc     Obj.obj
 0007:000002cd       __CF01DCB6_utility         000000014003d2cd     Obj.obj
 0007:000002ce       __12DC71E1___msvc_iter_core@hpp 000000014003d2ce     Obj.obj
 0007:000002cf       __D740E0F1_xutility        000000014003d2cf     Obj.obj
 0007:000002d0       __C6EC57B1_iterator        000000014003d2d0     Obj.obj
 0007:000002d1       __F7972D0B_share@h         000000014003d2d1     Obj.obj
 0007:000002d2       __3D410F40___msvc_system_error_abi@hpp 000000014003d2d2     Obj.obj
 0007:000002d3       __67C27134_cerrno          000000014003d2d3     Obj.obj
 0007:000002d4       __FA77ED4C_malloc@h        000000014003d2d4     Obj.obj
 0007:000002d5       __89766DA4_corecrt_terminate@h 000000014003d2d5     Obj.obj
 0007:000002d6       __27A4BD10_eh@h            000000014003d2d6     Obj.obj
 0007:000002d7       __E5C78335_vcruntime_exception@h 000000014003d2d7     Obj.obj
 0007:000002d8       __7C536CCC_exception       000000014003d2d8     Obj.obj
 0007:000002d9       __B9985323_float@h         000000014003d2d9     Obj.obj
 0007:000002da       __89A7CE48_cfloat          000000014003d2da     Obj.obj
 0007:000002db       __98438E05_isa_availability@h 000000014003d2db     Obj.obj
 0007:000002dc       __EF41832C_limits          000000014003d2dc     Obj.obj
 0007:000002dd       __0DB0C2E5_new             000000014003d2dd     Obj.obj
 0007:000002de       __765FE01A_xatomic@h       000000014003d2de     Obj.obj
 0007:000002df       __A594BF75_xmemory         000000014003d2df     Obj.obj
 0007:000002e0       __DFFCB714___msvc_sanitizer_annotate_container@hpp 000000014003d2e0     Obj.obj
 0007:000002e1       __D14739E9_xstring         000000014003d2e1     Obj.obj
 0007:000002e2       __F51D5691_stdexcept       000000014003d2e2     Obj.obj
 0007:000002e3       __ED2630B9_xcall_once@h    000000014003d2e3     Obj.obj
 0007:000002e4       __E6D9FA8D_xerrc@h         000000014003d2e4     Obj.obj
 0007:000002e5       __0A9237D2_time@h          000000014003d2e5     Obj.obj
 0007:000002e6       __BD655389_ctime           000000014003d2e6     Obj.obj
 0007:000002e7       __618403B0_xtimec@h        000000014003d2e7     Obj.obj
 0007:000002e8       __F68435D1_xthreads@h      000000014003d2e8     Obj.obj
 0007:000002e9       __8474DFEE_atomic          000000014003d2e9     Obj.obj
 0007:000002ea       __527B2299_system_error    000000014003d2ea     Obj.obj
 0007:000002eb       __0632977E_vcruntime_typeinfo@h 000000014003d2eb     Obj.obj
 0007:000002ec       __A79F13E8_typeinfo        000000014003d2ec     Obj.obj
 0007:000002ed       __53EF8FA2_memory          000000014003d2ed     Obj.obj
 0007:000002ee       __7FAAD8AD_xfacet          000000014003d2ee     Obj.obj
 0007:000002ef       __53FF2065___msvc_xlocinfo_types@hpp 000000014003d2ef     Obj.obj
 0007:000002f0       __1EC467ED_ctype@h         000000014003d2f0     Obj.obj
 0007:000002f1       __F528E268_cctype          000000014003d2f1     Obj.obj
 0007:000002f2       __791C33B7_locale@h        000000014003d2f2     Obj.obj
 0007:000002f3       __6BA085EC_clocale         000000014003d2f3     Obj.obj
 0007:000002f4       __B816F020_xlocinfo        000000014003d2f4     Obj.obj
 0007:000002f5       __0E794DD8_xlocale         000000014003d2f5     Obj.obj
 0007:000002f6       __81F38733_xiosbase        000000014003d2f6     Obj.obj
 0007:000002f7       __F7BDEE2D_streambuf       000000014003d2f7     Obj.obj
 0007:000002f8       __90FE2BCF_xlocnum         000000014003d2f8     Obj.obj
 0007:000002f9       __F57DF8F3_ios             000000014003d2f9     Obj.obj
 0007:000002fa       __1D69971C_ostream         000000014003d2fa     Obj.obj
 0007:000002fb       __7EB9A226_istream         000000014003d2fb     Obj.obj
 0007:000002fc       __B5399AEE_iostream        000000014003d2fc     Obj.obj
 0007:000002fd       __A2ECF3CC_vector          000000014003d2fd     Obj.obj
 0007:000002fe       __273C093E_string          000000014003d2fe     Obj.obj
 0007:000002ff       __C7E92177___msvc_filebuf@hpp 000000014003d2ff     Obj.obj
 0007:00000300       __88F1D2CF_fstream         000000014003d300     Obj.obj
 0007:00000301       __0ED14FEE_winpackagefamily@h 000000014003d301     Obj.obj
 0007:00000302       __F92EF742_winapifamily@h  000000014003d302     Obj.obj
 0007:00000303       __A2876721_begin_code@h    000000014003d303     Obj.obj
 0007:00000304       __353C8186_close_code@h    000000014003d304     Obj.obj
 0007:00000305       __6F25239C_SDL_platform@h  000000014003d305     Obj.obj
 0007:00000306       __82C05923_winsdkver@h     000000014003d306     Obj.obj
 0007:00000307       __22E515EB_sdkddkver@h     000000014003d307     Obj.obj
 0007:00000308       __F389C1BD_SDL_config@h    000000014003d308     Obj.obj
 0007:00000309       __8F4726C3_stdarg@h        000000014003d309     Obj.obj
 0007:0000030a       __53FE1C70_SDL_stdinc@h    000000014003d30a     Obj.obj
 0007:0000030b       __3C73E182_SDL_main@h      000000014003d30b     Obj.obj
 0007:0000030c       __70429658_SDL_assert@h    000000014003d30c     Obj.obj
 0007:0000030d       __6FF0449C_SDL_atomic@h    000000014003d30d     Obj.obj
 0007:0000030e       __9A47B874_SDL_error@h     000000014003d30e     Obj.obj
 0007:0000030f       __2BFB700F_setjmp@h        000000014003d30f     Obj.obj
 0007:00000310       __52EAA9E1_mmintrin@h      000000014003d310     Obj.obj
 0007:00000311       __55173A45_xmmintrin@h     000000014003d311     Obj.obj
 0007:00000312       __3075B389_emmintrin@h     000000014003d312     Obj.obj
 0007:00000313       __EFD4DB00_pmmintrin@h     000000014003d313     Obj.obj
 0007:00000314       __5F0DA882_tmmintrin@h     000000014003d314     Obj.obj
 0007:00000315       __7636BD01_smmintrin@h     000000014003d315     Obj.obj
 0007:00000316       __135434CD_nmmintrin@h     000000014003d316     Obj.obj
 0007:00000317       __C6EFCE83_wmmintrin@h     000000014003d317     Obj.obj
 0007:00000318       __0D7B8384_zmmintrin@h     000000014003d318     Obj.obj
 0007:00000319       __3A6F214E_immintrin@h     000000014003d319     Obj.obj
 0007:0000031a       __80ACC00B_ammintrin@h     000000014003d31a     Obj.obj
 0007:0000031b       __0DCDCC78_intrin@h        000000014003d31b     Obj.obj
 0007:0000031c       __7A3F6459_SDL_endian@h    000000014003d31c     Obj.obj
 0007:0000031d       __59C756B9_SDL_mutex@h     000000014003d31d     Obj.obj
 0007:0000031e       __D5227AE2_vcruntime_startup@h 000000014003d31e     Obj.obj
 0007:0000031f       __005E73E1_corecrt_startup@h 000000014003d31f     Obj.obj
 0007:00000320       __8B12B2C4_process@h       000000014003d320     Obj.obj
 0007:00000321       __B416E987_SDL_thread@h    000000014003d321     Obj.obj
 0007:00000322       __F93BF54A_SDL_rwops@h     000000014003d322     Obj.obj
 0007:00000323       __AD38A102_SDL_audio@h     000000014003d323     Obj.obj
 0007:00000324       __B2627313_SDL_clipboard@h 000000014003d324     Obj.obj
 0007:00000325       __1AB942FD_SDL_cpuinfo@h   000000014003d325     Obj.obj
 0007:00000326       __DCB3A287_SDL_pixels@h    000000014003d326     Obj.obj
 0007:00000327       __457F31CE_SDL_rect@h      000000014003d327     Obj.obj
 0007:00000328       __197134FA_SDL_blendmode@h 000000014003d328     Obj.obj
 0007:00000329       __72716086_SDL_surface@h   000000014003d329     Obj.obj
 0007:0000032a       __31837E1A_SDL_video@h     000000014003d32a     Obj.obj
 0007:0000032b       __B3A95C86_SDL_scancode@h  000000014003d32b     Obj.obj
 0007:0000032c       __69FFF255_SDL_keycode@h   000000014003d32c     Obj.obj
 0007:0000032d       __2076B894_SDL_keyboard@h  000000014003d32d     Obj.obj
 0007:0000032e       __A7666694_SDL_mouse@h     000000014003d32e     Obj.obj
 0007:0000032f       __051F7670_SDL_guid@h      000000014003d32f     Obj.obj
 0007:00000330       __21AB0010_SDL_joystick@h  000000014003d330     Obj.obj
 0007:00000331       __BCC4896D_SDL_sensor@h    000000014003d331     Obj.obj
 0007:00000332       __CE7D3E17_SDL_gamecontroller@h 000000014003d332     Obj.obj
 0007:00000333       __CCB63486_SDL_quit@h      000000014003d333     Obj.obj
 0007:00000334       __0DE17B45_SDL_touch@h     000000014003d334     Obj.obj
 0007:00000335       __6A4AEB4C_SDL_gesture@h   000000014003d335     Obj.obj
 0007:00000336       __244B2ECB_SDL_events@h    000000014003d336     Obj.obj
 0007:00000337       __37EDAFE1_SDL_filesystem@h 000000014003d337     Obj.obj
 0007:00000338       __DA29A963_SDL_haptic@h    000000014003d338     Obj.obj
 0007:00000339       __F90722B8_SDL_hidapi@h    000000014003d339     Obj.obj
 0007:0000033a       __B14BEBC6_SDL_hints@h     000000014003d33a     Obj.obj
 0007:0000033b       __9088D4E7_SDL_loadso@h    000000014003d33b     Obj.obj
 0007:0000033c       __C8E28B65_SDL_log@h       000000014003d33c     Obj.obj
 0007:0000033d       __031AAB28_SDL_messagebox@h 000000014003d33d     Obj.obj
 0007:0000033e       __CE5CC8D9_SDL_metal@h     000000014003d33e     Obj.obj
 0007:0000033f       __B7B4754C_SDL_power@h     000000014003d33f     Obj.obj
 0007:00000340       __CD132205_SDL_render@h    000000014003d340     Obj.obj
 0007:00000341       __0A572F13_SDL_shape@h     000000014003d341     Obj.obj
 0007:00000342       __6915B6AB_SDL_system@h    000000014003d342     Obj.obj
 0007:00000343       __BFF23D61_SDL_timer@h     000000014003d343     Obj.obj
 0007:00000344       __61B59C52_SDL_version@h   000000014003d344     Obj.obj
 0007:00000345       __104D3883_SDL_locale@h    000000014003d345     Obj.obj
 0007:00000346       __3B7F8EEB_SDL_misc@h      000000014003d346     Obj.obj
 0007:00000347       __845747DB_SDL@h           000000014003d347     Obj.obj
 0007:00000348       __6CC1B08D_SDL_image@h     000000014003d348     Obj.obj
 0007:00000349       __4DE9CACC_V2D@h           000000014003d349     Obj.obj
 0007:0000034a       __D9C75B77_Obj@h           000000014003d34a     Obj.obj
 0007:0000034b       __EFA859A1_Obj@cpp         000000014003d34b     Obj.obj
 0007:00000370       __2972590E_concurrencysal@h 000000014003d370     Splashscreen.obj
 0007:00000371       __196CC136_sal@h           000000014003d371     Splashscreen.obj
 0007:00000372       __C395F66A_vadefs@h        000000014003d372     Splashscreen.obj
 0007:00000373       __D5C25611_vcruntime@h     000000014003d373     Splashscreen.obj
 0007:00000374       __311F130C_xkeycheck@h     000000014003d374     Splashscreen.obj
 0007:00000375       __AEBEEEE9_yvals_core@h    000000014003d375     Splashscreen.obj
 0007:00000376       __05EEB633_limits@h        000000014003d376     Splashscreen.obj
 0007:00000377       __7CE37BCF_climits         000000014003d377     Splashscreen.obj
 0007:00000378       __1B0272D9_corecrt@h       000000014003d378     Splashscreen.obj
 0007:00000379       __D5F74309_vcruntime_new@h 000000014003d379     Splashscreen.obj
 0007:0000037a       __ED298667_vcruntime_new_debug@h 000000014003d37a     Splashscreen.obj
 0007:0000037b       __935DC21B_crtdbg@h        000000014003d37b     Splashscreen.obj
 0007:0000037c       __B40C025A_crtdefs@h       000000014003d37c     Splashscreen.obj
 0007:0000037d       __97CA0262_use_ansi@h      000000014003d37d     Splashscreen.obj
 0007:0000037e       __4E4CEF82_yvals@h         000000014003d37e     Splashscreen.obj
 0007:0000037f       __BB16330F_corecrt_math@h  000000014003d37f     Splashscreen.obj
 0007:00000380       __3BF2A406_math@h          000000014003d380     Splashscreen.obj
 0007:00000381       __45DED006_corecrt_malloc@h 000000014003d381     Splashscreen.obj
 0007:00000382       __13F5961F_stddef@h        000000014003d382     Splashscreen.obj
 0007:00000383       __FD6DBD68_corecrt_search@h 000000014003d383     Splashscreen.obj
 0007:00000384       __E2E33A61_corecrt_wstdlib@h 000000014003d384     Splashscreen.obj
 0007:00000385       __6E5ACABA_stdlib@h        000000014003d385     Splashscreen.obj
 0007:00000386       __F80C593D_cstdlib         000000014003d386     Splashscreen.obj
 0007:00000387       __6CC4302B_xtr1common      000000014003d387     Splashscreen.obj
 0007:00000388       __7178C802_intrin0@inl@h   000000014003d388     Splashscreen.obj
 0007:00000389       __AD21BB51_intrin0@h       000000014003d389     Splashscreen.obj
 0007:0000038a       __7BD6CF81_cmath           000000014003d38a     Splashscreen.obj
 0007:0000038b       __44420885_corecrt_stdio_config@h 000000014003d38b     Splashscreen.obj
 0007:0000038c       __AB601D8D_corecrt_wstdio@h 000000014003d38c     Splashscreen.obj
 0007:0000038d       __C1EC35D3_stdio@h         000000014003d38d     Splashscreen.obj
 0007:0000038e       __FAE305CF_cstdio          000000014003d38e     Splashscreen.obj
 0007:0000038f       __61CC25A1_errno@h         000000014003d38f     Splashscreen.obj
 0007:00000390       __4BC88476_vcruntime_string@h 000000014003d390     Splashscreen.obj
 0007:00000391       __E4C945B4_corecrt_memcpy_s@h 000000014003d391     Splashscreen.obj
 0007:00000392       __8EAFF484_corecrt_memory@h 000000014003d392     Splashscreen.obj
 0007:00000393       __6490AEC5_corecrt_wstring@h 000000014003d393     Splashscreen.obj
 0007:00000394       __E8295E1E_string@h        000000014003d394     Splashscreen.obj
 0007:00000395       __B49EF1DD_cstring         000000014003d395     Splashscreen.obj
 0007:00000396       __EF1F6BBA_corecrt_wconio@h 000000014003d396     Splashscreen.obj
 0007:00000397       __74484FB3_corecrt_wctype@h 000000014003d397     Splashscreen.obj
 0007:00000398       __3D1D430C_corecrt_wdirect@h 000000014003d398     Splashscreen.obj
 0007:00000399       __8ECB7138_corecrt_share@h 000000014003d399     Splashscreen.obj
 0007:0000039a       __DB7FEBA6_corecrt_wio@h   000000014003d39a     Splashscreen.obj
 0007:0000039b       __9A9F0068_corecrt_wprocess@h 000000014003d39b     Splashscreen.obj
 0007:0000039c       __369A9BC3_corecrt_wtime@h 000000014003d39c     Splashscreen.obj
 0007:0000039d       __CE789B9D_types@h         000000014003d39d     Splashscreen.obj
 0007:0000039e       __9901C817_stat@h          000000014003d39e     Splashscreen.obj
 0007:0000039f       __3FCAD62E_wchar@h         000000014003d39f     Splashscreen.obj
 0007:000003a0       __6068D39C_cwchar          000000014003d3a0     Splashscreen.obj
 0007:000003a1       __23A856AA_iosfwd          000000014003d3a1     Splashscreen.obj
 0007:000003a2       __5DC78390_cstddef         000000014003d3a2     Splashscreen.obj
 0007:000003a3       __33B42F3D_initializer_list 000000014003d3a3     Splashscreen.obj
 0007:000003a4       __BB98980C_stdint@h        000000014003d3a4     Splashscreen.obj
 0007:000003a5       __4552B840_cstdint         000000014003d3a5     Splashscreen.obj
 0007:000003a6       __7FB6D5C7_type_traits     000000014003d3a6     Splashscreen.obj
 0007:000003a7       __CF01DCB6_utility         000000014003d3a7     Splashscreen.obj
 0007:000003a8       __12DC71E1___msvc_iter_core@hpp 000000014003d3a8     Splashscreen.obj
 0007:000003a9       __D740E0F1_xutility        000000014003d3a9     Splashscreen.obj
 0007:000003aa       __C6EC57B1_iterator        000000014003d3aa     Splashscreen.obj
 0007:000003ab       __F7972D0B_share@h         000000014003d3ab     Splashscreen.obj
 0007:000003ac       __3D410F40___msvc_system_error_abi@hpp 000000014003d3ac     Splashscreen.obj
 0007:000003ad       __67C27134_cerrno          000000014003d3ad     Splashscreen.obj
 0007:000003ae       __FA77ED4C_malloc@h        000000014003d3ae     Splashscreen.obj
 0007:000003af       __89766DA4_corecrt_terminate@h 000000014003d3af     Splashscreen.obj
 0007:000003b0       __27A4BD10_eh@h            000000014003d3b0     Splashscreen.obj
 0007:000003b1       __E5C78335_vcruntime_exception@h 000000014003d3b1     Splashscreen.obj
 0007:000003b2       __7C536CCC_exception       000000014003d3b2     Splashscreen.obj
 0007:000003b3       __B9985323_float@h         000000014003d3b3     Splashscreen.obj
 0007:000003b4       __89A7CE48_cfloat          000000014003d3b4     Splashscreen.obj
 0007:000003b5       __98438E05_isa_availability@h 000000014003d3b5     Splashscreen.obj
 0007:000003b6       __EF41832C_limits          000000014003d3b6     Splashscreen.obj
 0007:000003b7       __0DB0C2E5_new             000000014003d3b7     Splashscreen.obj
 0007:000003b8       __765FE01A_xatomic@h       000000014003d3b8     Splashscreen.obj
 0007:000003b9       __A594BF75_xmemory         000000014003d3b9     Splashscreen.obj
 0007:000003ba       __DFFCB714___msvc_sanitizer_annotate_container@hpp 000000014003d3ba     Splashscreen.obj
 0007:000003bb       __D14739E9_xstring         000000014003d3bb     Splashscreen.obj
 0007:000003bc       __F51D5691_stdexcept       000000014003d3bc     Splashscreen.obj
 0007:000003bd       __ED2630B9_xcall_once@h    000000014003d3bd     Splashscreen.obj
 0007:000003be       __E6D9FA8D_xerrc@h         000000014003d3be     Splashscreen.obj
 0007:000003bf       __0A9237D2_time@h          000000014003d3bf     Splashscreen.obj
 0007:000003c0       __BD655389_ctime           000000014003d3c0     Splashscreen.obj
 0007:000003c1       __618403B0_xtimec@h        000000014003d3c1     Splashscreen.obj
 0007:000003c2       __F68435D1_xthreads@h      000000014003d3c2     Splashscreen.obj
 0007:000003c3       __8474DFEE_atomic          000000014003d3c3     Splashscreen.obj
 0007:000003c4       __527B2299_system_error    000000014003d3c4     Splashscreen.obj
 0007:000003c5       __0632977E_vcruntime_typeinfo@h 000000014003d3c5     Splashscreen.obj
 0007:000003c6       __A79F13E8_typeinfo        000000014003d3c6     Splashscreen.obj
 0007:000003c7       __53EF8FA2_memory          000000014003d3c7     Splashscreen.obj
 0007:000003c8       __7FAAD8AD_xfacet          000000014003d3c8     Splashscreen.obj
 0007:000003c9       __53FF2065___msvc_xlocinfo_types@hpp 000000014003d3c9     Splashscreen.obj
 0007:000003ca       __1EC467ED_ctype@h         000000014003d3ca     Splashscreen.obj
 0007:000003cb       __F528E268_cctype          000000014003d3cb     Splashscreen.obj
 0007:000003cc       __791C33B7_locale@h        000000014003d3cc     Splashscreen.obj
 0007:000003cd       __6BA085EC_clocale         000000014003d3cd     Splashscreen.obj
 0007:000003ce       __B816F020_xlocinfo        000000014003d3ce     Splashscreen.obj
 0007:000003cf       __0E794DD8_xlocale         000000014003d3cf     Splashscreen.obj
 0007:000003d0       __81F38733_xiosbase        000000014003d3d0     Splashscreen.obj
 0007:000003d1       __F7BDEE2D_streambuf       000000014003d3d1     Splashscreen.obj
 0007:000003d2       __90FE2BCF_xlocnum         000000014003d3d2     Splashscreen.obj
 0007:000003d3       __F57DF8F3_ios             000000014003d3d3     Splashscreen.obj
 0007:000003d4       __1D69971C_ostream         000000014003d3d4     Splashscreen.obj
 0007:000003d5       __7EB9A226_istream         000000014003d3d5     Splashscreen.obj
 0007:000003d6       __B5399AEE_iostream        000000014003d3d6     Splashscreen.obj
 0007:000003d7       __273C093E_string          000000014003d3d7     Splashscreen.obj
 0007:000003d8       __0ED14FEE_winpackagefamily@h 000000014003d3d8     Splashscreen.obj
 0007:000003d9       __F92EF742_winapifamily@h  000000014003d3d9     Splashscreen.obj
 0007:000003da       __A2876721_begin_code@h    000000014003d3da     Splashscreen.obj
 0007:000003db       __353C8186_close_code@h    000000014003d3db     Splashscreen.obj
 0007:000003dc       __6F25239C_SDL_platform@h  000000014003d3dc     Splashscreen.obj
 0007:000003dd       __82C05923_winsdkver@h     000000014003d3dd     Splashscreen.obj
 0007:000003de       __22E515EB_sdkddkver@h     000000014003d3de     Splashscreen.obj
 0007:000003df       __F389C1BD_SDL_config@h    000000014003d3df     Splashscreen.obj
 0007:000003e0       __8F4726C3_stdarg@h        000000014003d3e0     Splashscreen.obj
 0007:000003e1       __53FE1C70_SDL_stdinc@h    000000014003d3e1     Splashscreen.obj
 0007:000003e2       __3C73E182_SDL_main@h      000000014003d3e2     Splashscreen.obj
 0007:000003e3       __70429658_SDL_assert@h    000000014003d3e3     Splashscreen.obj
 0007:000003e4       __6FF0449C_SDL_atomic@h    000000014003d3e4     Splashscreen.obj
 0007:000003e5       __9A47B874_SDL_error@h     000000014003d3e5     Splashscreen.obj
 0007:000003e6       __2BFB700F_setjmp@h        000000014003d3e6     Splashscreen.obj
 0007:000003e7       __52EAA9E1_mmintrin@h      000000014003d3e7     Splashscreen.obj
 0007:000003e8       __55173A45_xmmintrin@h     000000014003d3e8     Splashscreen.obj
 0007:000003e9       __3075B389_emmintrin@h     000000014003d3e9     Splashscreen.obj
 0007:000003ea       __EFD4DB00_pmmintrin@h     000000014003d3ea     Splashscreen.obj
 0007:000003eb       __5F0DA882_tmmintrin@h     000000014003d3eb     Splashscreen.obj
 0007:000003ec       __7636BD01_smmintrin@h     000000014003d3ec     Splashscreen.obj
 0007:000003ed       __135434CD_nmmintrin@h     000000014003d3ed     Splashscreen.obj
 0007:000003ee       __C6EFCE83_wmmintrin@h     000000014003d3ee     Splashscreen.obj
 0007:000003ef       __0D7B8384_zmmintrin@h     000000014003d3ef     Splashscreen.obj
 0007:000003f0       __3A6F214E_immintrin@h     000000014003d3f0     Splashscreen.obj
 0007:000003f1       __80ACC00B_ammintrin@h     000000014003d3f1     Splashscreen.obj
 0007:000003f2       __0DCDCC78_intrin@h        000000014003d3f2     Splashscreen.obj
 0007:000003f3       __7A3F6459_SDL_endian@h    000000014003d3f3     Splashscreen.obj
 0007:000003f4       __59C756B9_SDL_mutex@h     000000014003d3f4     Splashscreen.obj
 0007:000003f5       __D5227AE2_vcruntime_startup@h 000000014003d3f5     Splashscreen.obj
 0007:000003f6       __005E73E1_corecrt_startup@h 000000014003d3f6     Splashscreen.obj
 0007:000003f7       __8B12B2C4_process@h       000000014003d3f7     Splashscreen.obj
 0007:000003f8       __B416E987_SDL_thread@h    000000014003d3f8     Splashscreen.obj
 0007:000003f9       __F93BF54A_SDL_rwops@h     000000014003d3f9     Splashscreen.obj
 0007:000003fa       __AD38A102_SDL_audio@h     000000014003d3fa     Splashscreen.obj
 0007:000003fb       __B2627313_SDL_clipboard@h 000000014003d3fb     Splashscreen.obj
 0007:000003fc       __1AB942FD_SDL_cpuinfo@h   000000014003d3fc     Splashscreen.obj
 0007:000003fd       __DCB3A287_SDL_pixels@h    000000014003d3fd     Splashscreen.obj
 0007:000003fe       __457F31CE_SDL_rect@h      000000014003d3fe     Splashscreen.obj
 0007:000003ff       __197134FA_SDL_blendmode@h 000000014003d3ff     Splashscreen.obj
 0007:00000400       __72716086_SDL_surface@h   000000014003d400     Splashscreen.obj
 0007:00000401       __31837E1A_SDL_video@h     000000014003d401     Splashscreen.obj
 0007:00000402       __B3A95C86_SDL_scancode@h  000000014003d402     Splashscreen.obj
 0007:00000403       __69FFF255_SDL_keycode@h   000000014003d403     Splashscreen.obj
 0007:00000404       __2076B894_SDL_keyboard@h  000000014003d404     Splashscreen.obj
 0007:00000405       __A7666694_SDL_mouse@h     000000014003d405     Splashscreen.obj
 0007:00000406       __051F7670_SDL_guid@h      000000014003d406     Splashscreen.obj
 0007:00000407       __21AB0010_SDL_joystick@h  000000014003d407     Splashscreen.obj
 0007:00000408       __BCC4896D_SDL_sensor@h    000000014003d408     Splashscreen.obj
 0007:00000409       __CE7D3E17_SDL_gamecontroller@h 000000014003d409     Splashscreen.obj
 0007:0000040a       __CCB63486_SDL_quit@h      000000014003d40a     Splashscreen.obj
 0007:0000040b       __0DE17B45_SDL_touch@h     000000014003d40b     Splashscreen.obj
 0007:0000040c       __6A4AEB4C_SDL_gesture@h   000000014003d40c     Splashscreen.obj
 0007:0000040d       __244B2ECB_SDL_events@h    000000014003d40d     Splashscreen.obj
 0007:0000040e       __37EDAFE1_SDL_filesystem@h 000000014003d40e     Splashscreen.obj
 0007:0000040f       __DA29A963_SDL_haptic@h    000000014003d40f     Splashscreen.obj
 0007:00000410       __F90722B8_SDL_hidapi@h    000000014003d410     Splashscreen.obj
 0007:00000411       __B14BEBC6_SDL_hints@h     000000014003d411     Splashscreen.obj
 0007:00000412       __9088D4E7_SDL_loadso@h    000000014003d412     Splashscreen.obj
 0007:00000413       __C8E28B65_SDL_log@h       000000014003d413     Splashscreen.obj
 0007:00000414       __031AAB28_SDL_messagebox@h 000000014003d414     Splashscreen.obj
 0007:00000415       __CE5CC8D9_SDL_metal@h     000000014003d415     Splashscreen.obj
 0007:00000416       __B7B4754C_SDL_power@h     000000014003d416     Splashscreen.obj
 0007:00000417       __CD132205_SDL_render@h    000000014003d417     Splashscreen.obj
 0007:00000418       __0A572F13_SDL_shape@h     000000014003d418     Splashscreen.obj
 0007:00000419       __6915B6AB_SDL_system@h    000000014003d419     Splashscreen.obj
 0007:0000041a       __BFF23D61_SDL_timer@h     000000014003d41a     Splashscreen.obj
 0007:0000041b       __61B59C52_SDL_version@h   000000014003d41b     Splashscreen.obj
 0007:0000041c       __104D3883_SDL_locale@h    000000014003d41c     Splashscreen.obj
 0007:0000041d       __3B7F8EEB_SDL_misc@h      000000014003d41d     Splashscreen.obj
 0007:0000041e       __845747DB_SDL@h           000000014003d41e     Splashscreen.obj
 0007:0000041f       __A42BA162_SDL_ttf@h       000000014003d41f     Splashscreen.obj
 0007:00000420       __1117DBDF_UI@h            000000014003d420     Splashscreen.obj
 0007:00000421       __23079775_Splashscreen@h  000000014003d421     Splashscreen.obj
 0007:00000422       __4F4C4F78_Splashscreen@cpp 000000014003d422     Splashscreen.obj
 0007:00000446       __2972590E_concurrencysal@h 000000014003d446     Tilemap.obj
 0007:00000447       __196CC136_sal@h           000000014003d447     Tilemap.obj
 0007:00000448       __C395F66A_vadefs@h        000000014003d448     Tilemap.obj
 0007:00000449       __D5C25611_vcruntime@h     000000014003d449     Tilemap.obj
 0007:0000044a       __311F130C_xkeycheck@h     000000014003d44a     Tilemap.obj
 0007:0000044b       __AEBEEEE9_yvals_core@h    000000014003d44b     Tilemap.obj
 0007:0000044c       __05EEB633_limits@h        000000014003d44c     Tilemap.obj
 0007:0000044d       __7CE37BCF_climits         000000014003d44d     Tilemap.obj
 0007:0000044e       __1B0272D9_corecrt@h       000000014003d44e     Tilemap.obj
 0007:0000044f       __D5F74309_vcruntime_new@h 000000014003d44f     Tilemap.obj
 0007:00000450       __ED298667_vcruntime_new_debug@h 000000014003d450     Tilemap.obj
 0007:00000451       __935DC21B_crtdbg@h        000000014003d451     Tilemap.obj
 0007:00000452       __B40C025A_crtdefs@h       000000014003d452     Tilemap.obj
 0007:00000453       __97CA0262_use_ansi@h      000000014003d453     Tilemap.obj
 0007:00000454       __4E4CEF82_yvals@h         000000014003d454     Tilemap.obj
 0007:00000455       __BB16330F_corecrt_math@h  000000014003d455     Tilemap.obj
 0007:00000456       __3BF2A406_math@h          000000014003d456     Tilemap.obj
 0007:00000457       __45DED006_corecrt_malloc@h 000000014003d457     Tilemap.obj
 0007:00000458       __13F5961F_stddef@h        000000014003d458     Tilemap.obj
 0007:00000459       __FD6DBD68_corecrt_search@h 000000014003d459     Tilemap.obj
 0007:0000045a       __E2E33A61_corecrt_wstdlib@h 000000014003d45a     Tilemap.obj
 0007:0000045b       __6E5ACABA_stdlib@h        000000014003d45b     Tilemap.obj
 0007:0000045c       __F80C593D_cstdlib         000000014003d45c     Tilemap.obj
 0007:0000045d       __6CC4302B_xtr1common      000000014003d45d     Tilemap.obj
 0007:0000045e       __7178C802_intrin0@inl@h   000000014003d45e     Tilemap.obj
 0007:0000045f       __AD21BB51_intrin0@h       000000014003d45f     Tilemap.obj
 0007:00000460       __7BD6CF81_cmath           000000014003d460     Tilemap.obj
 0007:00000461       __44420885_corecrt_stdio_config@h 000000014003d461     Tilemap.obj
 0007:00000462       __AB601D8D_corecrt_wstdio@h 000000014003d462     Tilemap.obj
 0007:00000463       __C1EC35D3_stdio@h         000000014003d463     Tilemap.obj
 0007:00000464       __FAE305CF_cstdio          000000014003d464     Tilemap.obj
 0007:00000465       __61CC25A1_errno@h         000000014003d465     Tilemap.obj
 0007:00000466       __4BC88476_vcruntime_string@h 000000014003d466     Tilemap.obj
 0007:00000467       __E4C945B4_corecrt_memcpy_s@h 000000014003d467     Tilemap.obj
 0007:00000468       __8EAFF484_corecrt_memory@h 000000014003d468     Tilemap.obj
 0007:00000469       __6490AEC5_corecrt_wstring@h 000000014003d469     Tilemap.obj
 0007:0000046a       __E8295E1E_string@h        000000014003d46a     Tilemap.obj
 0007:0000046b       __B49EF1DD_cstring         000000014003d46b     Tilemap.obj
 0007:0000046c       __EF1F6BBA_corecrt_wconio@h 000000014003d46c     Tilemap.obj
 0007:0000046d       __74484FB3_corecrt_wctype@h 000000014003d46d     Tilemap.obj
 0007:0000046e       __3D1D430C_corecrt_wdirect@h 000000014003d46e     Tilemap.obj
 0007:0000046f       __8ECB7138_corecrt_share@h 000000014003d46f     Tilemap.obj
 0007:00000470       __DB7FEBA6_corecrt_wio@h   000000014003d470     Tilemap.obj
 0007:00000471       __9A9F0068_corecrt_wprocess@h 000000014003d471     Tilemap.obj
 0007:00000472       __369A9BC3_corecrt_wtime@h 000000014003d472     Tilemap.obj
 0007:00000473       __CE789B9D_types@h         000000014003d473     Tilemap.obj
 0007:00000474       __9901C817_stat@h          000000014003d474     Tilemap.obj
 0007:00000475       __3FCAD62E_wchar@h         000000014003d475     Tilemap.obj
 0007:00000476       __6068D39C_cwchar          000000014003d476     Tilemap.obj
 0007:00000477       __23A856AA_iosfwd          000000014003d477     Tilemap.obj
 0007:00000478       __5DC78390_cstddef         000000014003d478     Tilemap.obj
 0007:00000479       __33B42F3D_initializer_list 000000014003d479     Tilemap.obj
 0007:0000047a       __BB98980C_stdint@h        000000014003d47a     Tilemap.obj
 0007:0000047b       __4552B840_cstdint         000000014003d47b     Tilemap.obj
 0007:0000047c       __7FB6D5C7_type_traits     000000014003d47c     Tilemap.obj
 0007:0000047d       __CF01DCB6_utility         000000014003d47d     Tilemap.obj
 0007:0000047e       __12DC71E1___msvc_iter_core@hpp 000000014003d47e     Tilemap.obj
 0007:0000047f       __D740E0F1_xutility        000000014003d47f     Tilemap.obj
 0007:00000480       __C6EC57B1_iterator        000000014003d480     Tilemap.obj
 0007:00000481       __F7972D0B_share@h         000000014003d481     Tilemap.obj
 0007:00000482       __3D410F40___msvc_system_error_abi@hpp 000000014003d482     Tilemap.obj
 0007:00000483       __67C27134_cerrno          000000014003d483     Tilemap.obj
 0007:00000484       __FA77ED4C_malloc@h        000000014003d484     Tilemap.obj
 0007:00000485       __89766DA4_corecrt_terminate@h 000000014003d485     Tilemap.obj
 0007:00000486       __27A4BD10_eh@h            000000014003d486     Tilemap.obj
 0007:00000487       __E5C78335_vcruntime_exception@h 000000014003d487     Tilemap.obj
 0007:00000488       __7C536CCC_exception       000000014003d488     Tilemap.obj
 0007:00000489       __B9985323_float@h         000000014003d489     Tilemap.obj
 0007:0000048a       __89A7CE48_cfloat          000000014003d48a     Tilemap.obj
 0007:0000048b       __98438E05_isa_availability@h 000000014003d48b     Tilemap.obj
 0007:0000048c       __EF41832C_limits          000000014003d48c     Tilemap.obj
 0007:0000048d       __0DB0C2E5_new             000000014003d48d     Tilemap.obj
 0007:0000048e       __765FE01A_xatomic@h       000000014003d48e     Tilemap.obj
 0007:0000048f       __A594BF75_xmemory         000000014003d48f     Tilemap.obj
 0007:00000490       __DFFCB714___msvc_sanitizer_annotate_container@hpp 000000014003d490     Tilemap.obj
 0007:00000491       __D14739E9_xstring         000000014003d491     Tilemap.obj
 0007:00000492       __F51D5691_stdexcept       000000014003d492     Tilemap.obj
 0007:00000493       __ED2630B9_xcall_once@h    000000014003d493     Tilemap.obj
 0007:00000494       __E6D9FA8D_xerrc@h         000000014003d494     Tilemap.obj
 0007:00000495       __0A9237D2_time@h          000000014003d495     Tilemap.obj
 0007:00000496       __BD655389_ctime           000000014003d496     Tilemap.obj
 0007:00000497       __618403B0_xtimec@h        000000014003d497     Tilemap.obj
 0007:00000498       __F68435D1_xthreads@h      000000014003d498     Tilemap.obj
 0007:00000499       __8474DFEE_atomic          000000014003d499     Tilemap.obj
 0007:0000049a       __527B2299_system_error    000000014003d49a     Tilemap.obj
 0007:0000049b       __0632977E_vcruntime_typeinfo@h 000000014003d49b     Tilemap.obj
 0007:0000049c       __A79F13E8_typeinfo        000000014003d49c     Tilemap.obj
 0007:0000049d       __53EF8FA2_memory          000000014003d49d     Tilemap.obj
 0007:0000049e       __7FAAD8AD_xfacet          000000014003d49e     Tilemap.obj
 0007:0000049f       __53FF2065___msvc_xlocinfo_types@hpp 000000014003d49f     Tilemap.obj
 0007:000004a0       __1EC467ED_ctype@h         000000014003d4a0     Tilemap.obj
 0007:000004a1       __F528E268_cctype          000000014003d4a1     Tilemap.obj
 0007:000004a2       __791C33B7_locale@h        000000014003d4a2     Tilemap.obj
 0007:000004a3       __6BA085EC_clocale         000000014003d4a3     Tilemap.obj
 0007:000004a4       __B816F020_xlocinfo        000000014003d4a4     Tilemap.obj
 0007:000004a5       __0E794DD8_xlocale         000000014003d4a5     Tilemap.obj
 0007:000004a6       __81F38733_xiosbase        000000014003d4a6     Tilemap.obj
 0007:000004a7       __F7BDEE2D_streambuf       000000014003d4a7     Tilemap.obj
 0007:000004a8       __90FE2BCF_xlocnum         000000014003d4a8     Tilemap.obj
 0007:000004a9       __F57DF8F3_ios             000000014003d4a9     Tilemap.obj
 0007:000004aa       __1D69971C_ostream         000000014003d4aa     Tilemap.obj
 0007:000004ab       __7EB9A226_istream         000000014003d4ab     Tilemap.obj
 0007:000004ac       __B5399AEE_iostream        000000014003d4ac     Tilemap.obj
 0007:000004ad       __A2ECF3CC_vector          000000014003d4ad     Tilemap.obj
 0007:000004ae       __273C093E_string          000000014003d4ae     Tilemap.obj
 0007:000004af       __C7E92177___msvc_filebuf@hpp 000000014003d4af     Tilemap.obj
 0007:000004b0       __88F1D2CF_fstream         000000014003d4b0     Tilemap.obj
 0007:000004b1       __0ED14FEE_winpackagefamily@h 000000014003d4b1     Tilemap.obj
 0007:000004b2       __F92EF742_winapifamily@h  000000014003d4b2     Tilemap.obj
 0007:000004b3       __A2876721_begin_code@h    000000014003d4b3     Tilemap.obj
 0007:000004b4       __353C8186_close_code@h    000000014003d4b4     Tilemap.obj
 0007:000004b5       __6F25239C_SDL_platform@h  000000014003d4b5     Tilemap.obj
 0007:000004b6       __82C05923_winsdkver@h     000000014003d4b6     Tilemap.obj
 0007:000004b7       __22E515EB_sdkddkver@h     000000014003d4b7     Tilemap.obj
 0007:000004b8       __F389C1BD_SDL_config@h    000000014003d4b8     Tilemap.obj
 0007:000004b9       __8F4726C3_stdarg@h        000000014003d4b9     Tilemap.obj
 0007:000004ba       __53FE1C70_SDL_stdinc@h    000000014003d4ba     Tilemap.obj
 0007:000004bb       __3C73E182_SDL_main@h      000000014003d4bb     Tilemap.obj
 0007:000004bc       __70429658_SDL_assert@h    000000014003d4bc     Tilemap.obj
 0007:000004bd       __6FF0449C_SDL_atomic@h    000000014003d4bd     Tilemap.obj
 0007:000004be       __9A47B874_SDL_error@h     000000014003d4be     Tilemap.obj
 0007:000004bf       __2BFB700F_setjmp@h        000000014003d4bf     Tilemap.obj
 0007:000004c0       __52EAA9E1_mmintrin@h      000000014003d4c0     Tilemap.obj
 0007:000004c1       __55173A45_xmmintrin@h     000000014003d4c1     Tilemap.obj
 0007:000004c2       __3075B389_emmintrin@h     000000014003d4c2     Tilemap.obj
 0007:000004c3       __EFD4DB00_pmmintrin@h     000000014003d4c3     Tilemap.obj
 0007:000004c4       __5F0DA882_tmmintrin@h     000000014003d4c4     Tilemap.obj
 0007:000004c5       __7636BD01_smmintrin@h     000000014003d4c5     Tilemap.obj
 0007:000004c6       __135434CD_nmmintrin@h     000000014003d4c6     Tilemap.obj
 0007:000004c7       __C6EFCE83_wmmintrin@h     000000014003d4c7     Tilemap.obj
 0007:000004c8       __0D7B8384_zmmintrin@h     000000014003d4c8     Tilemap.obj
 0007:000004c9       __3A6F214E_immintrin@h     000000014003d4c9     Tilemap.obj
 0007:000004ca       __80ACC00B_ammintrin@h     000000014003d4ca     Tilemap.obj
 0007:000004cb       __0DCDCC78_intrin@h        000000014003d4cb     Tilemap.obj
 0007:000004cc       __7A3F6459_SDL_endian@h    000000014003d4cc     Tilemap.obj
 0007:000004cd       __59C756B9_SDL_mutex@h     000000014003d4cd     Tilemap.obj
 0007:000004ce       __D5227AE2_vcruntime_startup@h 000000014003d4ce     Tilemap.obj
 0007:000004cf       __005E73E1_corecrt_startup@h 000000014003d4cf     Tilemap.obj
 0007:000004d0       __8B12B2C4_process@h       000000014003d4d0     Tilemap.obj
 0007:000004d1       __B416E987_SDL_thread@h    000000014003d4d1     Tilemap.obj
 0007:000004d2       __F93BF54A_SDL_rwops@h     000000014003d4d2     Tilemap.obj
 0007:000004d3       __AD38A102_SDL_audio@h     000000014003d4d3     Tilemap.obj
 0007:000004d4       __B2627313_SDL_clipboard@h 000000014003d4d4     Tilemap.obj
 0007:000004d5       __1AB942FD_SDL_cpuinfo@h   000000014003d4d5     Tilemap.obj
 0007:000004d6       __DCB3A287_SDL_pixels@h    000000014003d4d6     Tilemap.obj
 0007:000004d7       __457F31CE_SDL_rect@h      000000014003d4d7     Tilemap.obj
 0007:000004d8       __197134FA_SDL_blendmode@h 000000014003d4d8     Tilemap.obj
 0007:000004d9       __72716086_SDL_surface@h   000000014003d4d9     Tilemap.obj
 0007:000004da       __31837E1A_SDL_video@h     000000014003d4da     Tilemap.obj
 0007:000004db       __B3A95C86_SDL_scancode@h  000000014003d4db     Tilemap.obj
 0007:000004dc       __69FFF255_SDL_keycode@h   000000014003d4dc     Tilemap.obj
 0007:000004dd       __2076B894_SDL_keyboard@h  000000014003d4dd     Tilemap.obj
 0007:000004de       __A7666694_SDL_mouse@h     000000014003d4de     Tilemap.obj
 0007:000004df       __051F7670_SDL_guid@h      000000014003d4df     Tilemap.obj
 0007:000004e0       __21AB0010_SDL_joystick@h  000000014003d4e0     Tilemap.obj
 0007:000004e1       __BCC4896D_SDL_sensor@h    000000014003d4e1     Tilemap.obj
 0007:000004e2       __CE7D3E17_SDL_gamecontroller@h 000000014003d4e2     Tilemap.obj
 0007:000004e3       __CCB63486_SDL_quit@h      000000014003d4e3     Tilemap.obj
 0007:000004e4       __0DE17B45_SDL_touch@h     000000014003d4e4     Tilemap.obj
 0007:000004e5       __6A4AEB4C_SDL_gesture@h   000000014003d4e5     Tilemap.obj
 0007:000004e6       __244B2ECB_SDL_events@h    000000014003d4e6     Tilemap.obj
 0007:000004e7       __37EDAFE1_SDL_filesystem@h 000000014003d4e7     Tilemap.obj
 0007:000004e8       __DA29A963_SDL_haptic@h    000000014003d4e8     Tilemap.obj
 0007:000004e9       __F90722B8_SDL_hidapi@h    000000014003d4e9     Tilemap.obj
 0007:000004ea       __B14BEBC6_SDL_hints@h     000000014003d4ea     Tilemap.obj
 0007:000004eb       __9088D4E7_SDL_loadso@h    000000014003d4eb     Tilemap.obj
 0007:000004ec       __C8E28B65_SDL_log@h       000000014003d4ec     Tilemap.obj
 0007:000004ed       __031AAB28_SDL_messagebox@h 000000014003d4ed     Tilemap.obj
 0007:000004ee       __CE5CC8D9_SDL_metal@h     000000014003d4ee     Tilemap.obj
 0007:000004ef       __B7B4754C_SDL_power@h     000000014003d4ef     Tilemap.obj
 0007:000004f0       __CD132205_SDL_render@h    000000014003d4f0     Tilemap.obj
 0007:000004f1       __0A572F13_SDL_shape@h     000000014003d4f1     Tilemap.obj
 0007:000004f2       __6915B6AB_SDL_system@h    000000014003d4f2     Tilemap.obj
 0007:000004f3       __BFF23D61_SDL_timer@h     000000014003d4f3     Tilemap.obj
 0007:000004f4       __61B59C52_SDL_version@h   000000014003d4f4     Tilemap.obj
 0007:000004f5       __104D3883_SDL_locale@h    000000014003d4f5     Tilemap.obj
 0007:000004f6       __3B7F8EEB_SDL_misc@h      000000014003d4f6     Tilemap.obj
 0007:000004f7       __845747DB_SDL@h           000000014003d4f7     Tilemap.obj
 0007:000004f8       __6CC1B08D_SDL_image@h     000000014003d4f8     Tilemap.obj
 0007:000004f9       __4DE9CACC_V2D@h           000000014003d4f9     Tilemap.obj
 0007:000004fa       __D9C75B77_Obj@h           000000014003d4fa     Tilemap.obj
 0007:000004fb       __CFE0EAE2_Tilemap@h       000000014003d4fb     Tilemap.obj
 0007:000004fc       __5FF8B2C3_Tilemap@cpp     000000014003d4fc     Tilemap.obj
 0007:00000521       __2972590E_concurrencysal@h 000000014003d521     Timelimit.obj
 0007:00000522       __196CC136_sal@h           000000014003d522     Timelimit.obj
 0007:00000523       __C395F66A_vadefs@h        000000014003d523     Timelimit.obj
 0007:00000524       __D5C25611_vcruntime@h     000000014003d524     Timelimit.obj
 0007:00000525       __311F130C_xkeycheck@h     000000014003d525     Timelimit.obj
 0007:00000526       __AEBEEEE9_yvals_core@h    000000014003d526     Timelimit.obj
 0007:00000527       __05EEB633_limits@h        000000014003d527     Timelimit.obj
 0007:00000528       __7CE37BCF_climits         000000014003d528     Timelimit.obj
 0007:00000529       __1B0272D9_corecrt@h       000000014003d529     Timelimit.obj
 0007:0000052a       __D5F74309_vcruntime_new@h 000000014003d52a     Timelimit.obj
 0007:0000052b       __ED298667_vcruntime_new_debug@h 000000014003d52b     Timelimit.obj
 0007:0000052c       __935DC21B_crtdbg@h        000000014003d52c     Timelimit.obj
 0007:0000052d       __B40C025A_crtdefs@h       000000014003d52d     Timelimit.obj
 0007:0000052e       __97CA0262_use_ansi@h      000000014003d52e     Timelimit.obj
 0007:0000052f       __4E4CEF82_yvals@h         000000014003d52f     Timelimit.obj
 0007:00000530       __BB16330F_corecrt_math@h  000000014003d530     Timelimit.obj
 0007:00000531       __3BF2A406_math@h          000000014003d531     Timelimit.obj
 0007:00000532       __45DED006_corecrt_malloc@h 000000014003d532     Timelimit.obj
 0007:00000533       __13F5961F_stddef@h        000000014003d533     Timelimit.obj
 0007:00000534       __FD6DBD68_corecrt_search@h 000000014003d534     Timelimit.obj
 0007:00000535       __E2E33A61_corecrt_wstdlib@h 000000014003d535     Timelimit.obj
 0007:00000536       __6E5ACABA_stdlib@h        000000014003d536     Timelimit.obj
 0007:00000537       __F80C593D_cstdlib         000000014003d537     Timelimit.obj
 0007:00000538       __6CC4302B_xtr1common      000000014003d538     Timelimit.obj
 0007:00000539       __7178C802_intrin0@inl@h   000000014003d539     Timelimit.obj
 0007:0000053a       __AD21BB51_intrin0@h       000000014003d53a     Timelimit.obj
 0007:0000053b       __7BD6CF81_cmath           000000014003d53b     Timelimit.obj
 0007:0000053c       __44420885_corecrt_stdio_config@h 000000014003d53c     Timelimit.obj
 0007:0000053d       __AB601D8D_corecrt_wstdio@h 000000014003d53d     Timelimit.obj
 0007:0000053e       __C1EC35D3_stdio@h         000000014003d53e     Timelimit.obj
 0007:0000053f       __FAE305CF_cstdio          000000014003d53f     Timelimit.obj
 0007:00000540       __61CC25A1_errno@h         000000014003d540     Timelimit.obj
 0007:00000541       __4BC88476_vcruntime_string@h 000000014003d541     Timelimit.obj
 0007:00000542       __E4C945B4_corecrt_memcpy_s@h 000000014003d542     Timelimit.obj
 0007:00000543       __8EAFF484_corecrt_memory@h 000000014003d543     Timelimit.obj
 0007:00000544       __6490AEC5_corecrt_wstring@h 000000014003d544     Timelimit.obj
 0007:00000545       __E8295E1E_string@h        000000014003d545     Timelimit.obj
 0007:00000546       __B49EF1DD_cstring         000000014003d546     Timelimit.obj
 0007:00000547       __EF1F6BBA_corecrt_wconio@h 000000014003d547     Timelimit.obj
 0007:00000548       __74484FB3_corecrt_wctype@h 000000014003d548     Timelimit.obj
 0007:00000549       __3D1D430C_corecrt_wdirect@h 000000014003d549     Timelimit.obj
 0007:0000054a       __8ECB7138_corecrt_share@h 000000014003d54a     Timelimit.obj
 0007:0000054b       __DB7FEBA6_corecrt_wio@h   000000014003d54b     Timelimit.obj
 0007:0000054c       __9A9F0068_corecrt_wprocess@h 000000014003d54c     Timelimit.obj
 0007:0000054d       __369A9BC3_corecrt_wtime@h 000000014003d54d     Timelimit.obj
 0007:0000054e       __CE789B9D_types@h         000000014003d54e     Timelimit.obj
 0007:0000054f       __9901C817_stat@h          000000014003d54f     Timelimit.obj
 0007:00000550       __3FCAD62E_wchar@h         000000014003d550     Timelimit.obj
 0007:00000551       __6068D39C_cwchar          000000014003d551     Timelimit.obj
 0007:00000552       __23A856AA_iosfwd          000000014003d552     Timelimit.obj
 0007:00000553       __5DC78390_cstddef         000000014003d553     Timelimit.obj
 0007:00000554       __33B42F3D_initializer_list 000000014003d554     Timelimit.obj
 0007:00000555       __BB98980C_stdint@h        000000014003d555     Timelimit.obj
 0007:00000556       __4552B840_cstdint         000000014003d556     Timelimit.obj
 0007:00000557       __7FB6D5C7_type_traits     000000014003d557     Timelimit.obj
 0007:00000558       __CF01DCB6_utility         000000014003d558     Timelimit.obj
 0007:00000559       __12DC71E1___msvc_iter_core@hpp 000000014003d559     Timelimit.obj
 0007:0000055a       __D740E0F1_xutility        000000014003d55a     Timelimit.obj
 0007:0000055b       __C6EC57B1_iterator        000000014003d55b     Timelimit.obj
 0007:0000055c       __F7972D0B_share@h         000000014003d55c     Timelimit.obj
 0007:0000055d       __3D410F40___msvc_system_error_abi@hpp 000000014003d55d     Timelimit.obj
 0007:0000055e       __67C27134_cerrno          000000014003d55e     Timelimit.obj
 0007:0000055f       __FA77ED4C_malloc@h        000000014003d55f     Timelimit.obj
 0007:00000560       __89766DA4_corecrt_terminate@h 000000014003d560     Timelimit.obj
 0007:00000561       __27A4BD10_eh@h            000000014003d561     Timelimit.obj
 0007:00000562       __E5C78335_vcruntime_exception@h 000000014003d562     Timelimit.obj
 0007:00000563       __7C536CCC_exception       000000014003d563     Timelimit.obj
 0007:00000564       __B9985323_float@h         000000014003d564     Timelimit.obj
 0007:00000565       __89A7CE48_cfloat          000000014003d565     Timelimit.obj
 0007:00000566       __98438E05_isa_availability@h 000000014003d566     Timelimit.obj
 0007:00000567       __EF41832C_limits          000000014003d567     Timelimit.obj
 0007:00000568       __0DB0C2E5_new             000000014003d568     Timelimit.obj
 0007:00000569       __765FE01A_xatomic@h       000000014003d569     Timelimit.obj
 0007:0000056a       __A594BF75_xmemory         000000014003d56a     Timelimit.obj
 0007:0000056b       __DFFCB714___msvc_sanitizer_annotate_container@hpp 000000014003d56b     Timelimit.obj
 0007:0000056c       __D14739E9_xstring         000000014003d56c     Timelimit.obj
 0007:0000056d       __F51D5691_stdexcept       000000014003d56d     Timelimit.obj
 0007:0000056e       __ED2630B9_xcall_once@h    000000014003d56e     Timelimit.obj
 0007:0000056f       __E6D9FA8D_xerrc@h         000000014003d56f     Timelimit.obj
 0007:00000570       __0A9237D2_time@h          000000014003d570     Timelimit.obj
 0007:00000571       __BD655389_ctime           000000014003d571     Timelimit.obj
 0007:00000572       __618403B0_xtimec@h        000000014003d572     Timelimit.obj
 0007:00000573       __F68435D1_xthreads@h      000000014003d573     Timelimit.obj
 0007:00000574       __8474DFEE_atomic          000000014003d574     Timelimit.obj
 0007:00000575       __527B2299_system_error    000000014003d575     Timelimit.obj
 0007:00000576       __0632977E_vcruntime_typeinfo@h 000000014003d576     Timelimit.obj
 0007:00000577       __A79F13E8_typeinfo        000000014003d577     Timelimit.obj
 0007:00000578       __53EF8FA2_memory          000000014003d578     Timelimit.obj
 0007:00000579       __7FAAD8AD_xfacet          000000014003d579     Timelimit.obj
 0007:0000057a       __53FF2065___msvc_xlocinfo_types@hpp 000000014003d57a     Timelimit.obj
 0007:0000057b       __1EC467ED_ctype@h         000000014003d57b     Timelimit.obj
 0007:0000057c       __F528E268_cctype          000000014003d57c     Timelimit.obj
 0007:0000057d       __791C33B7_locale@h        000000014003d57d     Timelimit.obj
 0007:0000057e       __6BA085EC_clocale         000000014003d57e     Timelimit.obj
 0007:0000057f       __B816F020_xlocinfo        000000014003d57f     Timelimit.obj
 0007:00000580       __0E794DD8_xlocale         000000014003d580     Timelimit.obj
 0007:00000581       __81F38733_xiosbase        000000014003d581     Timelimit.obj
 0007:00000582       __F7BDEE2D_streambuf       000000014003d582     Timelimit.obj
 0007:00000583       __90FE2BCF_xlocnum         000000014003d583     Timelimit.obj
 0007:00000584       __F57DF8F3_ios             000000014003d584     Timelimit.obj
 0007:00000585       __1D69971C_ostream         000000014003d585     Timelimit.obj
 0007:00000586       __7EB9A226_istream         000000014003d586     Timelimit.obj
 0007:00000587       __B5399AEE_iostream        000000014003d587     Timelimit.obj
 0007:00000588       __0ED14FEE_winpackagefamily@h 000000014003d588     Timelimit.obj
 0007:00000589       __F92EF742_winapifamily@h  000000014003d589     Timelimit.obj
 0007:0000058a       __A2876721_begin_code@h    000000014003d58a     Timelimit.obj
 0007:0000058b       __353C8186_close_code@h    000000014003d58b     Timelimit.obj
 0007:0000058c       __6F25239C_SDL_platform@h  000000014003d58c     Timelimit.obj
 0007:0000058d       __82C05923_winsdkver@h     000000014003d58d     Timelimit.obj
 0007:0000058e       __22E515EB_sdkddkver@h     000000014003d58e     Timelimit.obj
 0007:0000058f       __F389C1BD_SDL_config@h    000000014003d58f     Timelimit.obj
 0007:00000590       __8F4726C3_stdarg@h        000000014003d590     Timelimit.obj
 0007:00000591       __53FE1C70_SDL_stdinc@h    000000014003d591     Timelimit.obj
 0007:00000592       __3C73E182_SDL_main@h      000000014003d592     Timelimit.obj
 0007:00000593       __70429658_SDL_assert@h    000000014003d593     Timelimit.obj
 0007:00000594       __6FF0449C_SDL_atomic@h    000000014003d594     Timelimit.obj
 0007:00000595       __9A47B874_SDL_error@h     000000014003d595     Timelimit.obj
 0007:00000596       __2BFB700F_setjmp@h        000000014003d596     Timelimit.obj
 0007:00000597       __52EAA9E1_mmintrin@h      000000014003d597     Timelimit.obj
 0007:00000598       __55173A45_xmmintrin@h     000000014003d598     Timelimit.obj
 0007:00000599       __3075B389_emmintrin@h     000000014003d599     Timelimit.obj
 0007:0000059a       __EFD4DB00_pmmintrin@h     000000014003d59a     Timelimit.obj
 0007:0000059b       __5F0DA882_tmmintrin@h     000000014003d59b     Timelimit.obj
 0007:0000059c       __7636BD01_smmintrin@h     000000014003d59c     Timelimit.obj
 0007:0000059d       __135434CD_nmmintrin@h     000000014003d59d     Timelimit.obj
 0007:0000059e       __C6EFCE83_wmmintrin@h     000000014003d59e     Timelimit.obj
 0007:0000059f       __0D7B8384_zmmintrin@h     000000014003d59f     Timelimit.obj
 0007:000005a0       __3A6F214E_immintrin@h     000000014003d5a0     Timelimit.obj
 0007:000005a1       __80ACC00B_ammintrin@h     000000014003d5a1     Timelimit.obj
 0007:000005a2       __0DCDCC78_intrin@h        000000014003d5a2     Timelimit.obj
 0007:000005a3       __7A3F6459_SDL_endian@h    000000014003d5a3     Timelimit.obj
 0007:000005a4       __59C756B9_SDL_mutex@h     000000014003d5a4     Timelimit.obj
 0007:000005a5       __D5227AE2_vcruntime_startup@h 000000014003d5a5     Timelimit.obj
 0007:000005a6       __005E73E1_corecrt_startup@h 000000014003d5a6     Timelimit.obj
 0007:000005a7       __8B12B2C4_process@h       000000014003d5a7     Timelimit.obj
 0007:000005a8       __B416E987_SDL_thread@h    000000014003d5a8     Timelimit.obj
 0007:000005a9       __F93BF54A_SDL_rwops@h     000000014003d5a9     Timelimit.obj
 0007:000005aa       __AD38A102_SDL_audio@h     000000014003d5aa     Timelimit.obj
 0007:000005ab       __B2627313_SDL_clipboard@h 000000014003d5ab     Timelimit.obj
 0007:000005ac       __1AB942FD_SDL_cpuinfo@h   000000014003d5ac     Timelimit.obj
 0007:000005ad       __DCB3A287_SDL_pixels@h    000000014003d5ad     Timelimit.obj
 0007:000005ae       __457F31CE_SDL_rect@h      000000014003d5ae     Timelimit.obj
 0007:000005af       __197134FA_SDL_blendmode@h 000000014003d5af     Timelimit.obj
 0007:000005b0       __72716086_SDL_surface@h   000000014003d5b0     Timelimit.obj
 0007:000005b1       __31837E1A_SDL_video@h     000000014003d5b1     Timelimit.obj
 0007:000005b2       __B3A95C86_SDL_scancode@h  000000014003d5b2     Timelimit.obj
 0007:000005b3       __69FFF255_SDL_keycode@h   000000014003d5b3     Timelimit.obj
 0007:000005b4       __2076B894_SDL_keyboard@h  000000014003d5b4     Timelimit.obj
 0007:000005b5       __A7666694_SDL_mouse@h     000000014003d5b5     Timelimit.obj
 0007:000005b6       __051F7670_SDL_guid@h      000000014003d5b6     Timelimit.obj
 0007:000005b7       __21AB0010_SDL_joystick@h  000000014003d5b7     Timelimit.obj
 0007:000005b8       __BCC4896D_SDL_sensor@h    000000014003d5b8     Timelimit.obj
 0007:000005b9       __CE7D3E17_SDL_gamecontroller@h 000000014003d5b9     Timelimit.obj
 0007:000005ba       __CCB63486_SDL_quit@h      000000014003d5ba     Timelimit.obj
 0007:000005bb       __0DE17B45_SDL_touch@h     000000014003d5bb     Timelimit.obj
 0007:000005bc       __6A4AEB4C_SDL_gesture@h   000000014003d5bc     Timelimit.obj
 0007:000005bd       __244B2ECB_SDL_events@h    000000014003d5bd     Timelimit.obj
 0007:000005be       __37EDAFE1_SDL_filesystem@h 000000014003d5be     Timelimit.obj
 0007:000005bf       __DA29A963_SDL_haptic@h    000000014003d5bf     Timelimit.obj
 0007:000005c0       __F90722B8_SDL_hidapi@h    000000014003d5c0     Timelimit.obj
 0007:000005c1       __B14BEBC6_SDL_hints@h     000000014003d5c1     Timelimit.obj
 0007:000005c2       __9088D4E7_SDL_loadso@h    000000014003d5c2     Timelimit.obj
 0007:000005c3       __C8E28B65_SDL_log@h       000000014003d5c3     Timelimit.obj
 0007:000005c4       __031AAB28_SDL_messagebox@h 000000014003d5c4     Timelimit.obj
 0007:000005c5       __CE5CC8D9_SDL_metal@h     000000014003d5c5     Timelimit.obj
 0007:000005c6       __B7B4754C_SDL_power@h     000000014003d5c6     Timelimit.obj
 0007:000005c7       __CD132205_SDL_render@h    000000014003d5c7     Timelimit.obj
 0007:000005c8       __0A572F13_SDL_shape@h     000000014003d5c8     Timelimit.obj
 0007:000005c9       __6915B6AB_SDL_system@h    000000014003d5c9     Timelimit.obj
 0007:000005ca       __BFF23D61_SDL_timer@h     000000014003d5ca     Timelimit.obj
 0007:000005cb       __61B59C52_SDL_version@h   000000014003d5cb     Timelimit.obj
 0007:000005cc       __104D3883_SDL_locale@h    000000014003d5cc     Timelimit.obj
 0007:000005cd       __3B7F8EEB_SDL_misc@h      000000014003d5cd     Timelimit.obj
 0007:000005ce       __845747DB_SDL@h           000000014003d5ce     Timelimit.obj
 0007:000005cf       __B2294197_Timelimit@h     000000014003d5cf     Timelimit.obj
 0007:000005d0       __4CB438D9_Timelimit@cpp   000000014003d5d0     Timelimit.obj
 0007:000005f4       __2972590E_concurrencysal@h 000000014003d5f4     UI.obj
 0007:000005f5       __196CC136_sal@h           000000014003d5f5     UI.obj
 0007:000005f6       __C395F66A_vadefs@h        000000014003d5f6     UI.obj
 0007:000005f7       __D5C25611_vcruntime@h     000000014003d5f7     UI.obj
 0007:000005f8       __311F130C_xkeycheck@h     000000014003d5f8     UI.obj
 0007:000005f9       __AEBEEEE9_yvals_core@h    000000014003d5f9     UI.obj
 0007:000005fa       __05EEB633_limits@h        000000014003d5fa     UI.obj
 0007:000005fb       __7CE37BCF_climits         000000014003d5fb     UI.obj
 0007:000005fc       __1B0272D9_corecrt@h       000000014003d5fc     UI.obj
 0007:000005fd       __D5F74309_vcruntime_new@h 000000014003d5fd     UI.obj
 0007:000005fe       __ED298667_vcruntime_new_debug@h 000000014003d5fe     UI.obj
 0007:000005ff       __935DC21B_crtdbg@h        000000014003d5ff     UI.obj
 0007:00000600       __B40C025A_crtdefs@h       000000014003d600     UI.obj
 0007:00000601       __97CA0262_use_ansi@h      000000014003d601     UI.obj
 0007:00000602       __4E4CEF82_yvals@h         000000014003d602     UI.obj
 0007:00000603       __BB16330F_corecrt_math@h  000000014003d603     UI.obj
 0007:00000604       __3BF2A406_math@h          000000014003d604     UI.obj
 0007:00000605       __45DED006_corecrt_malloc@h 000000014003d605     UI.obj
 0007:00000606       __13F5961F_stddef@h        000000014003d606     UI.obj
 0007:00000607       __FD6DBD68_corecrt_search@h 000000014003d607     UI.obj
 0007:00000608       __E2E33A61_corecrt_wstdlib@h 000000014003d608     UI.obj
 0007:00000609       __6E5ACABA_stdlib@h        000000014003d609     UI.obj
 0007:0000060a       __F80C593D_cstdlib         000000014003d60a     UI.obj
 0007:0000060b       __6CC4302B_xtr1common      000000014003d60b     UI.obj
 0007:0000060c       __7178C802_intrin0@inl@h   000000014003d60c     UI.obj
 0007:0000060d       __AD21BB51_intrin0@h       000000014003d60d     UI.obj
 0007:0000060e       __7BD6CF81_cmath           000000014003d60e     UI.obj
 0007:0000060f       __44420885_corecrt_stdio_config@h 000000014003d60f     UI.obj
 0007:00000610       __AB601D8D_corecrt_wstdio@h 000000014003d610     UI.obj
 0007:00000611       __C1EC35D3_stdio@h         000000014003d611     UI.obj
 0007:00000612       __FAE305CF_cstdio          000000014003d612     UI.obj
 0007:00000613       __61CC25A1_errno@h         000000014003d613     UI.obj
 0007:00000614       __4BC88476_vcruntime_string@h 000000014003d614     UI.obj
 0007:00000615       __E4C945B4_corecrt_memcpy_s@h 000000014003d615     UI.obj
 0007:00000616       __8EAFF484_corecrt_memory@h 000000014003d616     UI.obj
 0007:00000617       __6490AEC5_corecrt_wstring@h 000000014003d617     UI.obj
 0007:00000618       __E8295E1E_string@h        000000014003d618     UI.obj
 0007:00000619       __B49EF1DD_cstring         000000014003d619     UI.obj
 0007:0000061a       __EF1F6BBA_corecrt_wconio@h 000000014003d61a     UI.obj
 0007:0000061b       __74484FB3_corecrt_wctype@h 000000014003d61b     UI.obj
 0007:0000061c       __3D1D430C_corecrt_wdirect@h 000000014003d61c     UI.obj
 0007:0000061d       __8ECB7138_corecrt_share@h 000000014003d61d     UI.obj
 0007:0000061e       __DB7FEBA6_corecrt_wio@h   000000014003d61e     UI.obj
 0007:0000061f       __9A9F0068_corecrt_wprocess@h 000000014003d61f     UI.obj
 0007:00000620       __369A9BC3_corecrt_wtime@h 000000014003d620     UI.obj
 0007:00000621       __CE789B9D_types@h         000000014003d621     UI.obj
 0007:00000622       __9901C817_stat@h          000000014003d622     UI.obj
 0007:00000623       __3FCAD62E_wchar@h         000000014003d623     UI.obj
 0007:00000624       __6068D39C_cwchar          000000014003d624     UI.obj
 0007:00000625       __23A856AA_iosfwd          000000014003d625     UI.obj
 0007:00000626       __5DC78390_cstddef         000000014003d626     UI.obj
 0007:00000627       __33B42F3D_initializer_list 000000014003d627     UI.obj
 0007:00000628       __BB98980C_stdint@h        000000014003d628     UI.obj
 0007:00000629       __4552B840_cstdint         000000014003d629     UI.obj
 0007:0000062a       __7FB6D5C7_type_traits     000000014003d62a     UI.obj
 0007:0000062b       __CF01DCB6_utility         000000014003d62b     UI.obj
 0007:0000062c       __12DC71E1___msvc_iter_core@hpp 000000014003d62c     UI.obj
 0007:0000062d       __D740E0F1_xutility        000000014003d62d     UI.obj
 0007:0000062e       __C6EC57B1_iterator        000000014003d62e     UI.obj
 0007:0000062f       __F7972D0B_share@h         000000014003d62f     UI.obj
 0007:00000630       __3D410F40___msvc_system_error_abi@hpp 000000014003d630     UI.obj
 0007:00000631       __67C27134_cerrno          000000014003d631     UI.obj
 0007:00000632       __FA77ED4C_malloc@h        000000014003d632     UI.obj
 0007:00000633       __89766DA4_corecrt_terminate@h 000000014003d633     UI.obj
 0007:00000634       __27A4BD10_eh@h            000000014003d634     UI.obj
 0007:00000635       __E5C78335_vcruntime_exception@h 000000014003d635     UI.obj
 0007:00000636       __7C536CCC_exception       000000014003d636     UI.obj
 0007:00000637       __B9985323_float@h         000000014003d637     UI.obj
 0007:00000638       __89A7CE48_cfloat          000000014003d638     UI.obj
 0007:00000639       __98438E05_isa_availability@h 000000014003d639     UI.obj
 0007:0000063a       __EF41832C_limits          000000014003d63a     UI.obj
 0007:0000063b       __0DB0C2E5_new             000000014003d63b     UI.obj
 0007:0000063c       __765FE01A_xatomic@h       000000014003d63c     UI.obj
 0007:0000063d       __A594BF75_xmemory         000000014003d63d     UI.obj
 0007:0000063e       __DFFCB714___msvc_sanitizer_annotate_container@hpp 000000014003d63e     UI.obj
 0007:0000063f       __D14739E9_xstring         000000014003d63f     UI.obj
 0007:00000640       __F51D5691_stdexcept       000000014003d640     UI.obj
 0007:00000641       __ED2630B9_xcall_once@h    000000014003d641     UI.obj
 0007:00000642       __E6D9FA8D_xerrc@h         000000014003d642     UI.obj
 0007:00000643       __0A9237D2_time@h          000000014003d643     UI.obj
 0007:00000644       __BD655389_ctime           000000014003d644     UI.obj
 0007:00000645       __618403B0_xtimec@h        000000014003d645     UI.obj
 0007:00000646       __F68435D1_xthreads@h      000000014003d646     UI.obj
 0007:00000647       __8474DFEE_atomic          000000014003d647     UI.obj
 0007:00000648       __527B2299_system_error    000000014003d648     UI.obj
 0007:00000649       __0632977E_vcruntime_typeinfo@h 000000014003d649     UI.obj
 0007:0000064a       __A79F13E8_typeinfo        000000014003d64a     UI.obj
 0007:0000064b       __53EF8FA2_memory          000000014003d64b     UI.obj
 0007:0000064c       __7FAAD8AD_xfacet          000000014003d64c     UI.obj
 0007:0000064d       __53FF2065___msvc_xlocinfo_types@hpp 000000014003d64d     UI.obj
 0007:0000064e       __1EC467ED_ctype@h         000000014003d64e     UI.obj
 0007:0000064f       __F528E268_cctype          000000014003d64f     UI.obj
 0007:00000650       __791C33B7_locale@h        000000014003d650     UI.obj
 0007:00000651       __6BA085EC_clocale         000000014003d651     UI.obj
 0007:00000652       __B816F020_xlocinfo        000000014003d652     UI.obj
 0007:00000653       __0E794DD8_xlocale         000000014003d653     UI.obj
 0007:00000654       __81F38733_xiosbase        000000014003d654     UI.obj
 0007:00000655       __F7BDEE2D_streambuf       000000014003d655     UI.obj
 0007:00000656       __90FE2BCF_xlocnum         000000014003d656     UI.obj
 0007:00000657       __F57DF8F3_ios             000000014003d657     UI.obj
 0007:00000658       __1D69971C_ostream         000000014003d658     UI.obj
 0007:00000659       __7EB9A226_istream         000000014003d659     UI.obj
 0007:0000065a       __B5399AEE_iostream        000000014003d65a     UI.obj
 0007:0000065b       __273C093E_string          000000014003d65b     UI.obj
 0007:0000065c       __0ED14FEE_winpackagefamily@h 000000014003d65c     UI.obj
 0007:0000065d       __F92EF742_winapifamily@h  000000014003d65d     UI.obj
 0007:0000065e       __A2876721_begin_code@h    000000014003d65e     UI.obj
 0007:0000065f       __353C8186_close_code@h    000000014003d65f     UI.obj
 0007:00000660       __6F25239C_SDL_platform@h  000000014003d660     UI.obj
 0007:00000661       __82C05923_winsdkver@h     000000014003d661     UI.obj
 0007:00000662       __22E515EB_sdkddkver@h     000000014003d662     UI.obj
 0007:00000663       __F389C1BD_SDL_config@h    000000014003d663     UI.obj
 0007:00000664       __8F4726C3_stdarg@h        000000014003d664     UI.obj
 0007:00000665       __53FE1C70_SDL_stdinc@h    000000014003d665     UI.obj
 0007:00000666       __3C73E182_SDL_main@h      000000014003d666     UI.obj
 0007:00000667       __70429658_SDL_assert@h    000000014003d667     UI.obj
 0007:00000668       __6FF0449C_SDL_atomic@h    000000014003d668     UI.obj
 0007:00000669       __9A47B874_SDL_error@h     000000014003d669     UI.obj
 0007:0000066a       __2BFB700F_setjmp@h        000000014003d66a     UI.obj
 0007:0000066b       __52EAA9E1_mmintrin@h      000000014003d66b     UI.obj
 0007:0000066c       __55173A45_xmmintrin@h     000000014003d66c     UI.obj
 0007:0000066d       __3075B389_emmintrin@h     000000014003d66d     UI.obj
 0007:0000066e       __EFD4DB00_pmmintrin@h     000000014003d66e     UI.obj
 0007:0000066f       __5F0DA882_tmmintrin@h     000000014003d66f     UI.obj
 0007:00000670       __7636BD01_smmintrin@h     000000014003d670     UI.obj
 0007:00000671       __135434CD_nmmintrin@h     000000014003d671     UI.obj
 0007:00000672       __C6EFCE83_wmmintrin@h     000000014003d672     UI.obj
 0007:00000673       __0D7B8384_zmmintrin@h     000000014003d673     UI.obj
 0007:00000674       __3A6F214E_immintrin@h     000000014003d674     UI.obj
 0007:00000675       __80ACC00B_ammintrin@h     000000014003d675     UI.obj
 0007:00000676       __0DCDCC78_intrin@h        000000014003d676     UI.obj
 0007:00000677       __7A3F6459_SDL_endian@h    000000014003d677     UI.obj
 0007:00000678       __59C756B9_SDL_mutex@h     000000014003d678     UI.obj
 0007:00000679       __D5227AE2_vcruntime_startup@h 000000014003d679     UI.obj
 0007:0000067a       __005E73E1_corecrt_startup@h 000000014003d67a     UI.obj
 0007:0000067b       __8B12B2C4_process@h       000000014003d67b     UI.obj
 0007:0000067c       __B416E987_SDL_thread@h    000000014003d67c     UI.obj
 0007:0000067d       __F93BF54A_SDL_rwops@h     000000014003d67d     UI.obj
 0007:0000067e       __AD38A102_SDL_audio@h     000000014003d67e     UI.obj
 0007:0000067f       __B2627313_SDL_clipboard@h 000000014003d67f     UI.obj
 0007:00000680       __1AB942FD_SDL_cpuinfo@h   000000014003d680     UI.obj
 0007:00000681       __DCB3A287_SDL_pixels@h    000000014003d681     UI.obj
 0007:00000682       __457F31CE_SDL_rect@h      000000014003d682     UI.obj
 0007:00000683       __197134FA_SDL_blendmode@h 000000014003d683     UI.obj
 0007:00000684       __72716086_SDL_surface@h   000000014003d684     UI.obj
 0007:00000685       __31837E1A_SDL_video@h     000000014003d685     UI.obj
 0007:00000686       __B3A95C86_SDL_scancode@h  000000014003d686     UI.obj
 0007:00000687       __69FFF255_SDL_keycode@h   000000014003d687     UI.obj
 0007:00000688       __2076B894_SDL_keyboard@h  000000014003d688     UI.obj
 0007:00000689       __A7666694_SDL_mouse@h     000000014003d689     UI.obj
 0007:0000068a       __051F7670_SDL_guid@h      000000014003d68a     UI.obj
 0007:0000068b       __21AB0010_SDL_joystick@h  000000014003d68b     UI.obj
 0007:0000068c       __BCC4896D_SDL_sensor@h    000000014003d68c     UI.obj
 0007:0000068d       __CE7D3E17_SDL_gamecontroller@h 000000014003d68d     UI.obj
 0007:0000068e       __CCB63486_SDL_quit@h      000000014003d68e     UI.obj
 0007:0000068f       __0DE17B45_SDL_touch@h     000000014003d68f     UI.obj
 0007:00000690       __6A4AEB4C_SDL_gesture@h   000000014003d690     UI.obj
 0007:00000691       __244B2ECB_SDL_events@h    000000014003d691     UI.obj
 0007:00000692       __37EDAFE1_SDL_filesystem@h 000000014003d692     UI.obj
 0007:00000693       __DA29A963_SDL_haptic@h    000000014003d693     UI.obj
 0007:00000694       __F90722B8_SDL_hidapi@h    000000014003d694     UI.obj
 0007:00000695       __B14BEBC6_SDL_hints@h     000000014003d695     UI.obj
 0007:00000696       __9088D4E7_SDL_loadso@h    000000014003d696     UI.obj
 0007:00000697       __C8E28B65_SDL_log@h       000000014003d697     UI.obj
 0007:00000698       __031AAB28_SDL_messagebox@h 000000014003d698     UI.obj
 0007:00000699       __CE5CC8D9_SDL_metal@h     000000014003d699     UI.obj
 0007:0000069a       __B7B4754C_SDL_power@h     000000014003d69a     UI.obj
 0007:0000069b       __CD132205_SDL_render@h    000000014003d69b     UI.obj
 0007:0000069c       __0A572F13_SDL_shape@h     000000014003d69c     UI.obj
 0007:0000069d       __6915B6AB_SDL_system@h    000000014003d69d     UI.obj
 0007:0000069e       __BFF23D61_SDL_timer@h     000000014003d69e     UI.obj
 0007:0000069f       __61B59C52_SDL_version@h   000000014003d69f     UI.obj
 0007:000006a0       __104D3883_SDL_locale@h    000000014003d6a0     UI.obj
 0007:000006a1       __3B7F8EEB_SDL_misc@h      000000014003d6a1     UI.obj
 0007:000006a2       __845747DB_SDL@h           000000014003d6a2     UI.obj
 0007:000006a3       __A42BA162_SDL_ttf@h       000000014003d6a3     UI.obj
 0007:000006a4       __1117DBDF_UI@h            000000014003d6a4     UI.obj
 0007:000006a5       __64CE24B0_UI@cpp          000000014003d6a5     UI.obj
 0007:000006c9       __4DE9CACC_V2D@h           000000014003d6c9     V2D.obj
 0007:000006ca       __6F91192E_V2D@cpp         000000014003d6ca     V2D.obj
 0007:000006cb       __2972590E_concurrencysal@h 000000014003d6cb     WizardTime.obj
 0007:000006cc       __196CC136_sal@h           000000014003d6cc     WizardTime.obj
 0007:000006cd       __C395F66A_vadefs@h        000000014003d6cd     WizardTime.obj
 0007:000006ce       __D5C25611_vcruntime@h     000000014003d6ce     WizardTime.obj
 0007:000006cf       __311F130C_xkeycheck@h     000000014003d6cf     WizardTime.obj
 0007:000006d0       __AEBEEEE9_yvals_core@h    000000014003d6d0     WizardTime.obj
 0007:000006d1       __05EEB633_limits@h        000000014003d6d1     WizardTime.obj
 0007:000006d2       __7CE37BCF_climits         000000014003d6d2     WizardTime.obj
 0007:000006d3       __1B0272D9_corecrt@h       000000014003d6d3     WizardTime.obj
 0007:000006d4       __D5F74309_vcruntime_new@h 000000014003d6d4     WizardTime.obj
 0007:000006d5       __ED298667_vcruntime_new_debug@h 000000014003d6d5     WizardTime.obj
 0007:000006d6       __935DC21B_crtdbg@h        000000014003d6d6     WizardTime.obj
 0007:000006d7       __B40C025A_crtdefs@h       000000014003d6d7     WizardTime.obj
 0007:000006d8       __97CA0262_use_ansi@h      000000014003d6d8     WizardTime.obj
 0007:000006d9       __4E4CEF82_yvals@h         000000014003d6d9     WizardTime.obj
 0007:000006da       __BB16330F_corecrt_math@h  000000014003d6da     WizardTime.obj
 0007:000006db       __3BF2A406_math@h          000000014003d6db     WizardTime.obj
 0007:000006dc       __45DED006_corecrt_malloc@h 000000014003d6dc     WizardTime.obj
 0007:000006dd       __13F5961F_stddef@h        000000014003d6dd     WizardTime.obj
 0007:000006de       __FD6DBD68_corecrt_search@h 000000014003d6de     WizardTime.obj
 0007:000006df       __E2E33A61_corecrt_wstdlib@h 000000014003d6df     WizardTime.obj
 0007:000006e0       __6E5ACABA_stdlib@h        000000014003d6e0     WizardTime.obj
 0007:000006e1       __F80C593D_cstdlib         000000014003d6e1     WizardTime.obj
 0007:000006e2       __6CC4302B_xtr1common      000000014003d6e2     WizardTime.obj
 0007:000006e3       __7178C802_intrin0@inl@h   000000014003d6e3     WizardTime.obj
 0007:000006e4       __AD21BB51_intrin0@h       000000014003d6e4     WizardTime.obj
 0007:000006e5       __7BD6CF81_cmath           000000014003d6e5     WizardTime.obj
 0007:000006e6       __44420885_corecrt_stdio_config@h 000000014003d6e6     WizardTime.obj
 0007:000006e7       __AB601D8D_corecrt_wstdio@h 000000014003d6e7     WizardTime.obj
 0007:000006e8       __C1EC35D3_stdio@h         000000014003d6e8     WizardTime.obj
 0007:000006e9       __FAE305CF_cstdio          000000014003d6e9     WizardTime.obj
 0007:000006ea       __61CC25A1_errno@h         000000014003d6ea     WizardTime.obj
 0007:000006eb       __4BC88476_vcruntime_string@h 000000014003d6eb     WizardTime.obj
 0007:000006ec       __E4C945B4_corecrt_memcpy_s@h 000000014003d6ec     WizardTime.obj
 0007:000006ed       __8EAFF484_corecrt_memory@h 000000014003d6ed     WizardTime.obj
 0007:000006ee       __6490AEC5_corecrt_wstring@h 000000014003d6ee     WizardTime.obj
 0007:000006ef       __E8295E1E_string@h        000000014003d6ef     WizardTime.obj
 0007:000006f0       __B49EF1DD_cstring         000000014003d6f0     WizardTime.obj
 0007:000006f1       __EF1F6BBA_corecrt_wconio@h 000000014003d6f1     WizardTime.obj
 0007:000006f2       __74484FB3_corecrt_wctype@h 000000014003d6f2     WizardTime.obj
 0007:000006f3       __3D1D430C_corecrt_wdirect@h 000000014003d6f3     WizardTime.obj
 0007:000006f4       __8ECB7138_corecrt_share@h 000000014003d6f4     WizardTime.obj
 0007:000006f5       __DB7FEBA6_corecrt_wio@h   000000014003d6f5     WizardTime.obj
 0007:000006f6       __9A9F0068_corecrt_wprocess@h 000000014003d6f6     WizardTime.obj
 0007:000006f7       __369A9BC3_corecrt_wtime@h 000000014003d6f7     WizardTime.obj
 0007:000006f8       __CE789B9D_types@h         000000014003d6f8     WizardTime.obj
 0007:000006f9       __9901C817_stat@h          000000014003d6f9     WizardTime.obj
 0007:000006fa       __3FCAD62E_wchar@h         000000014003d6fa     WizardTime.obj
 0007:000006fb       __6068D39C_cwchar          000000014003d6fb     WizardTime.obj
 0007:000006fc       __23A856AA_iosfwd          000000014003d6fc     WizardTime.obj
 0007:000006fd       __5DC78390_cstddef         000000014003d6fd     WizardTime.obj
 0007:000006fe       __33B42F3D_initializer_list 000000014003d6fe     WizardTime.obj
 0007:000006ff       __BB98980C_stdint@h        000000014003d6ff     WizardTime.obj
 0007:00000700       __4552B840_cstdint         000000014003d700     WizardTime.obj
 0007:00000701       __7FB6D5C7_type_traits     000000014003d701     WizardTime.obj
 0007:00000702       __CF01DCB6_utility         000000014003d702     WizardTime.obj
 0007:00000703       __12DC71E1___msvc_iter_core@hpp 000000014003d703     WizardTime.obj
 0007:00000704       __D740E0F1_xutility        000000014003d704     WizardTime.obj
 0007:00000705       __C6EC57B1_iterator        000000014003d705     WizardTime.obj
 0007:00000706       __F7972D0B_share@h         000000014003d706     WizardTime.obj
 0007:00000707       __3D410F40___msvc_system_error_abi@hpp 000000014003d707     WizardTime.obj
 0007:00000708       __67C27134_cerrno          000000014003d708     WizardTime.obj
 0007:00000709       __FA77ED4C_malloc@h        000000014003d709     WizardTime.obj
 0007:0000070a       __89766DA4_corecrt_terminate@h 000000014003d70a     WizardTime.obj
 0007:0000070b       __27A4BD10_eh@h            000000014003d70b     WizardTime.obj
 0007:0000070c       __E5C78335_vcruntime_exception@h 000000014003d70c     WizardTime.obj
 0007:0000070d       __7C536CCC_exception       000000014003d70d     WizardTime.obj
 0007:0000070e       __B9985323_float@h         000000014003d70e     WizardTime.obj
 0007:0000070f       __89A7CE48_cfloat          000000014003d70f     WizardTime.obj
 0007:00000710       __98438E05_isa_availability@h 000000014003d710     WizardTime.obj
 0007:00000711       __EF41832C_limits          000000014003d711     WizardTime.obj
 0007:00000712       __0DB0C2E5_new             000000014003d712     WizardTime.obj
 0007:00000713       __765FE01A_xatomic@h       000000014003d713     WizardTime.obj
 0007:00000714       __A594BF75_xmemory         000000014003d714     WizardTime.obj
 0007:00000715       __DFFCB714___msvc_sanitizer_annotate_container@hpp 000000014003d715     WizardTime.obj
 0007:00000716       __D14739E9_xstring         000000014003d716     WizardTime.obj
 0007:00000717       __F51D5691_stdexcept       000000014003d717     WizardTime.obj
 0007:00000718       __ED2630B9_xcall_once@h    000000014003d718     WizardTime.obj
 0007:00000719       __E6D9FA8D_xerrc@h         000000014003d719     WizardTime.obj
 0007:0000071a       __0A9237D2_time@h          000000014003d71a     WizardTime.obj
 0007:0000071b       __BD655389_ctime           000000014003d71b     WizardTime.obj
 0007:0000071c       __618403B0_xtimec@h        000000014003d71c     WizardTime.obj
 0007:0000071d       __F68435D1_xthreads@h      000000014003d71d     WizardTime.obj
 0007:0000071e       __8474DFEE_atomic          000000014003d71e     WizardTime.obj
 0007:0000071f       __527B2299_system_error    000000014003d71f     WizardTime.obj
 0007:00000720       __0632977E_vcruntime_typeinfo@h 000000014003d720     WizardTime.obj
 0007:00000721       __A79F13E8_typeinfo        000000014003d721     WizardTime.obj
 0007:00000722       __53EF8FA2_memory          000000014003d722     WizardTime.obj
 0007:00000723       __7FAAD8AD_xfacet          000000014003d723     WizardTime.obj
 0007:00000724       __53FF2065___msvc_xlocinfo_types@hpp 000000014003d724     WizardTime.obj
 0007:00000725       __1EC467ED_ctype@h         000000014003d725     WizardTime.obj
 0007:00000726       __F528E268_cctype          000000014003d726     WizardTime.obj
 0007:00000727       __791C33B7_locale@h        000000014003d727     WizardTime.obj
 0007:00000728       __6BA085EC_clocale         000000014003d728     WizardTime.obj
 0007:00000729       __B816F020_xlocinfo        000000014003d729     WizardTime.obj
 0007:0000072a       __0E794DD8_xlocale         000000014003d72a     WizardTime.obj
 0007:0000072b       __81F38733_xiosbase        000000014003d72b     WizardTime.obj
 0007:0000072c       __F7BDEE2D_streambuf       000000014003d72c     WizardTime.obj
 0007:0000072d       __90FE2BCF_xlocnum         000000014003d72d     WizardTime.obj
 0007:0000072e       __F57DF8F3_ios             000000014003d72e     WizardTime.obj
 0007:0000072f       __1D69971C_ostream         000000014003d72f     WizardTime.obj
 0007:00000730       __7EB9A226_istream         000000014003d730     WizardTime.obj
 0007:00000731       __B5399AEE_iostream        000000014003d731     WizardTime.obj
 0007:00000732       __273C093E_string          000000014003d732     WizardTime.obj
 0007:00000733       __A2ECF3CC_vector          000000014003d733     WizardTime.obj
 0007:00000734       __C7E92177___msvc_filebuf@hpp 000000014003d734     WizardTime.obj
 0007:00000735       __88F1D2CF_fstream         000000014003d735     WizardTime.obj
 0007:00000736       __0ED14FEE_winpackagefamily@h 000000014003d736     WizardTime.obj
 0007:00000737       __F92EF742_winapifamily@h  000000014003d737     WizardTime.obj
 0007:00000738       __A2876721_begin_code@h    000000014003d738     WizardTime.obj
 0007:00000739       __353C8186_close_code@h    000000014003d739     WizardTime.obj
 0007:0000073a       __6F25239C_SDL_platform@h  000000014003d73a     WizardTime.obj
 0007:0000073b       __82C05923_winsdkver@h     000000014003d73b     WizardTime.obj
 0007:0000073c       __22E515EB_sdkddkver@h     000000014003d73c     WizardTime.obj
 0007:0000073d       __F389C1BD_SDL_config@h    000000014003d73d     WizardTime.obj
 0007:0000073e       __8F4726C3_stdarg@h        000000014003d73e     WizardTime.obj
 0007:0000073f       __53FE1C70_SDL_stdinc@h    000000014003d73f     WizardTime.obj
 0007:00000740       __3C73E182_SDL_main@h      000000014003d740     WizardTime.obj
 0007:00000741       __70429658_SDL_assert@h    000000014003d741     WizardTime.obj
 0007:00000742       __6FF0449C_SDL_atomic@h    000000014003d742     WizardTime.obj
 0007:00000743       __9A47B874_SDL_error@h     000000014003d743     WizardTime.obj
 0007:00000744       __2BFB700F_setjmp@h        000000014003d744     WizardTime.obj
 0007:00000745       __52EAA9E1_mmintrin@h      000000014003d745     WizardTime.obj
 0007:00000746       __55173A45_xmmintrin@h     000000014003d746     WizardTime.obj
 0007:00000747       __3075B389_emmintrin@h     000000014003d747     WizardTime.obj
 0007:00000748       __EFD4DB00_pmmintrin@h     000000014003d748     WizardTime.obj
 0007:00000749       __5F0DA882_tmmintrin@h     000000014003d749     WizardTime.obj
 0007:0000074a       __7636BD01_smmintrin@h     000000014003d74a     WizardTime.obj
 0007:0000074b       __135434CD_nmmintrin@h     000000014003d74b     WizardTime.obj
 0007:0000074c       __C6EFCE83_wmmintrin@h     000000014003d74c     WizardTime.obj
 0007:0000074d       __0D7B8384_zmmintrin@h     000000014003d74d     WizardTime.obj
 0007:0000074e       __3A6F214E_immintrin@h     000000014003d74e     WizardTime.obj
 0007:0000074f       __80ACC00B_ammintrin@h     000000014003d74f     WizardTime.obj
 0007:00000750       __0DCDCC78_intrin@h        000000014003d750     WizardTime.obj
 0007:00000751       __7A3F6459_SDL_endian@h    000000014003d751     WizardTime.obj
 0007:00000752       __59C756B9_SDL_mutex@h     000000014003d752     WizardTime.obj
 0007:00000753       __D5227AE2_vcruntime_startup@h 000000014003d753     WizardTime.obj
 0007:00000754       __005E73E1_corecrt_startup@h 000000014003d754     WizardTime.obj
 0007:00000755       __8B12B2C4_process@h       000000014003d755     WizardTime.obj
 0007:00000756       __B416E987_SDL_thread@h    000000014003d756     WizardTime.obj
 0007:00000757       __F93BF54A_SDL_rwops@h     000000014003d757     WizardTime.obj
 0007:00000758       __AD38A102_SDL_audio@h     000000014003d758     WizardTime.obj
 0007:00000759       __B2627313_SDL_clipboard@h 000000014003d759     WizardTime.obj
 0007:0000075a       __1AB942FD_SDL_cpuinfo@h   000000014003d75a     WizardTime.obj
 0007:0000075b       __DCB3A287_SDL_pixels@h    000000014003d75b     WizardTime.obj
 0007:0000075c       __457F31CE_SDL_rect@h      000000014003d75c     WizardTime.obj
 0007:0000075d       __197134FA_SDL_blendmode@h 000000014003d75d     WizardTime.obj
 0007:0000075e       __72716086_SDL_surface@h   000000014003d75e     WizardTime.obj
 0007:0000075f       __31837E1A_SDL_video@h     000000014003d75f     WizardTime.obj
 0007:00000760       __B3A95C86_SDL_scancode@h  000000014003d760     WizardTime.obj
 0007:00000761       __69FFF255_SDL_keycode@h   000000014003d761     WizardTime.obj
 0007:00000762       __2076B894_SDL_keyboard@h  000000014003d762     WizardTime.obj
 0007:00000763       __A7666694_SDL_mouse@h     000000014003d763     WizardTime.obj
 0007:00000764       __051F7670_SDL_guid@h      000000014003d764     WizardTime.obj
 0007:00000765       __21AB0010_SDL_joystick@h  000000014003d765     WizardTime.obj
 0007:00000766       __BCC4896D_SDL_sensor@h    000000014003d766     WizardTime.obj
 0007:00000767       __CE7D3E17_SDL_gamecontroller@h 000000014003d767     WizardTime.obj
 0007:00000768       __CCB63486_SDL_quit@h      000000014003d768     WizardTime.obj
 0007:00000769       __0DE17B45_SDL_touch@h     000000014003d769     WizardTime.obj
 0007:0000076a       __6A4AEB4C_SDL_gesture@h   000000014003d76a     WizardTime.obj
 0007:0000076b       __244B2ECB_SDL_events@h    000000014003d76b     WizardTime.obj
 0007:0000076c       __37EDAFE1_SDL_filesystem@h 000000014003d76c     WizardTime.obj
 0007:0000076d       __DA29A963_SDL_haptic@h    000000014003d76d     WizardTime.obj
 0007:0000076e       __F90722B8_SDL_hidapi@h    000000014003d76e     WizardTime.obj
 0007:0000076f       __B14BEBC6_SDL_hints@h     000000014003d76f     WizardTime.obj
 0007:00000770       __9088D4E7_SDL_loadso@h    000000014003d770     WizardTime.obj
 0007:00000771       __C8E28B65_SDL_log@h       000000014003d771     WizardTime.obj
 0007:00000772       __031AAB28_SDL_messagebox@h 000000014003d772     WizardTime.obj
 0007:00000773       __CE5CC8D9_SDL_metal@h     000000014003d773     WizardTime.obj
 0007:00000774       __B7B4754C_SDL_power@h     000000014003d774     WizardTime.obj
 0007:00000775       __CD132205_SDL_render@h    000000014003d775     WizardTime.obj
 0007:00000776       __0A572F13_SDL_shape@h     000000014003d776     WizardTime.obj
 0007:00000777       __6915B6AB_SDL_system@h    000000014003d777     WizardTime.obj
 0007:00000778       __BFF23D61_SDL_timer@h     000000014003d778     WizardTime.obj
 0007:00000779       __61B59C52_SDL_version@h   000000014003d779     WizardTime.obj
 0007:0000077a       __104D3883_SDL_locale@h    000000014003d77a     WizardTime.obj
 0007:0000077b       __3B7F8EEB_SDL_misc@h      000000014003d77b     WizardTime.obj
 0007:0000077c       __845747DB_SDL@h           000000014003d77c     WizardTime.obj
 0007:0000077d       __A42BA162_SDL_ttf@h       000000014003d77d     WizardTime.obj
 0007:0000077e       __6CC1B08D_SDL_image@h     000000014003d77e     WizardTime.obj
 0007:0000077f       __1117DBDF_UI@h            000000014003d77f     WizardTime.obj
 0007:00000780       __23079775_Splashscreen@h  000000014003d780     WizardTime.obj
 0007:00000781       __4DE9CACC_V2D@h           000000014003d781     WizardTime.obj
 0007:00000782       __D9C75B77_Obj@h           000000014003d782     WizardTime.obj
 0007:00000783       __CFE0EAE2_Tilemap@h       000000014003d783     WizardTime.obj
 0007:00000784       __EC22DB91_Gameworld@h     000000014003d784     WizardTime.obj
 0007:00000785       __B2294197_Timelimit@h     000000014003d785     WizardTime.obj
 0007:00000786       __DDB49F7C_Endscreen@h     000000014003d786     WizardTime.obj
 0007:00000787       __61198008_Game@h          000000014003d787     WizardTime.obj
 0007:00000788       __353044C6_WizardTime@cpp  000000014003d788     WizardTime.obj
 0009:00000170       $R000000                   000000014003f170     * linker generated manifest res *
